
========================================================================

** ELF Header Information

    File Name: .\CM0.axf

    Machine class: ELFCLASS32 (32-bit)
    Data encoding: ELFDATA2LSB (Little endian)
    Header version: EV_CURRENT (Current version)
    Operating System ABI: none
    ABI Version: 0
    File Type: ET_EXEC (Executable) (2)
    Machine: EM_ARM (ARM)

    Image Entry point: 0x00000085
    Flags: EF_ARM_HASENTRY + EF_ARM_ABI_FLOAT_SOFT (0x05000202)

    ARM ELF revision: 5 (ABI version 2)

    Conforms to Soft float procedure-call standard

    Built with
    Component: ARM Compiler 5.06 update 7 (build 960) Tool: armasm [4d35fa]
    Component: ARM Compiler 5.06 update 7 (build 960) Tool: armlink [4d3601]

    Header size: 52 bytes (0x34)
    Program header entry size: 32 bytes (0x20)
    Section header entry size: 40 bytes (0x28)

    Program header entries: 1
    Section header entries: 16

    Program header offset: 140664 (0x00022578)
    Section header offset: 140696 (0x00022598)

    Section header string table index: 15

========================================================================

** Program header #0

    Type          : PT_LOAD (1)
    File Offset   : 52 (0x34)
    Virtual Addr  : 0x00000000
    Physical Addr : 0x00000000
    Size in file  : 12692 bytes (0x3194)
    Size in memory: 14756 bytes (0x39a4)
    Flags         : PF_X + PF_W + PF_R + PF_ARM_ENTRY (0x80000007)
    Alignment     : 8


========================================================================

** Section #1

    Name        : ER_IROM1
    Type        : SHT_PROGBITS (0x00000001)
    Flags       : SHF_ALLOC + SHF_EXECINSTR (0x00000006)
    Addr        : 0x00000000
    File Offset : 52 (0x34)
    Size        : 12564 bytes (0x3114)
    Link        : SHN_UNDEF
    Info        : 0
    Alignment   : 4
    Entry Size  : 0

    $d.realdata
    RESET
    __Vectors
        0x00000000:    20000890    ...     DCD    536873104
        0x00000004:    00000129    )...    DCD    297
        0x00000008:    00000135    5...    DCD    309
        0x0000000c:    00000137    7...    DCD    311
        0x00000010:    00000000    ....    DCD    0
        0x00000014:    00000000    ....    DCD    0
        0x00000018:    00000000    ....    DCD    0
        0x0000001c:    00000000    ....    DCD    0
        0x00000020:    00000000    ....    DCD    0
        0x00000024:    00000000    ....    DCD    0
        0x00000028:    00000000    ....    DCD    0
        0x0000002c:    00000139    9...    DCD    313
        0x00000030:    00000000    ....    DCD    0
        0x00000034:    00000000    ....    DCD    0
        0x00000038:    0000013b    ;...    DCD    315
        0x0000003c:    0000013d    =...    DCD    317
        0x00000040:    0000013f    ?...    DCD    319
        0x00000044:    00000147    G...    DCD    327
        0x00000048:    0000014f    O...    DCD    335
        0x0000004c:    00000157    W...    DCD    343
        0x00000050:    0000015f    _...    DCD    351
        0x00000054:    00000167    g...    DCD    359
        0x00000058:    0000016f    o...    DCD    367
        0x0000005c:    00000177    w...    DCD    375
        0x00000060:    0000017f    ....    DCD    383
        0x00000064:    00000187    ....    DCD    391
        0x00000068:    0000018f    ....    DCD    399
        0x0000006c:    00000197    ....    DCD    407
        0x00000070:    0000019f    ....    DCD    415
        0x00000074:    000001a7    ....    DCD    423
        0x00000078:    000001af    ....    DCD    431
        0x0000007c:    000001b7    ....    DCD    439
        0x00000080:    000001bf    ....    DCD    447
    $t
    !!!main
    __Vectors_End
    __main
        0x00000084:    f000f802    ....    BL       __scatterload ; 0x8c
        0x00000088:    f000f83e    ..>.    BL       __rt_entry ; 0x108
    !!!scatter
    __scatterload
    __scatterload_rt2
    __scatterload_rt2_thumb_only
        0x0000008c:    a00c        ..      ADR      r0,{pc}+0x34 ; 0xc0
        0x0000008e:    c830        0.      LDM      r0!,{r4,r5}
        0x00000090:    3808        .8      SUBS     r0,r0,#8
        0x00000092:    1824        $.      ADDS     r4,r4,r0
        0x00000094:    182d        -.      ADDS     r5,r5,r0
        0x00000096:    46a2        .F      MOV      r10,r4
        0x00000098:    1e67        g.      SUBS     r7,r4,#1
        0x0000009a:    46ab        .F      MOV      r11,r5
    __scatterload_null
        0x0000009c:    4654        TF      MOV      r4,r10
        0x0000009e:    465d        ]F      MOV      r5,r11
        0x000000a0:    42ac        .B      CMP      r4,r5
        0x000000a2:    d101        ..      BNE      0xa8 ; __scatterload_null + 12
        0x000000a4:    f000f830    ..0.    BL       __rt_entry ; 0x108
        0x000000a8:    467e        ~F      MOV      r6,pc
        0x000000aa:    3e0f        .>      SUBS     r6,r6,#0xf
        0x000000ac:    cc0f        ..      LDM      r4!,{r0-r3}
        0x000000ae:    46b6        .F      MOV      lr,r6
        0x000000b0:    2601        .&      MOVS     r6,#1
        0x000000b2:    4233        3B      TST      r3,r6
        0x000000b4:    d000        ..      BEQ      0xb8 ; __scatterload_null + 28
        0x000000b6:    1afb        ..      SUBS     r3,r7,r3
        0x000000b8:    46a2        .F      MOV      r10,r4
        0x000000ba:    46ab        .F      MOV      r11,r5
        0x000000bc:    4333        3C      ORRS     r3,r3,r6
        0x000000be:    4718        .G      BX       r3
    $d
        0x000000c0:    00003034    40..    DCD    12340
        0x000000c4:    00003054    T0..    DCD    12372
    $t
    !!handler_copy
    __scatterload_copy
        0x000000c8:    3a10        .:      SUBS     r2,r2,#0x10
        0x000000ca:    d302        ..      BCC      0xd2 ; __scatterload_copy + 10
        0x000000cc:    c878        x.      LDM      r0!,{r3-r6}
        0x000000ce:    c178        x.      STM      r1!,{r3-r6}
        0x000000d0:    d8fa        ..      BHI      __scatterload_copy ; 0xc8
        0x000000d2:    0752        R.      LSLS     r2,r2,#29
        0x000000d4:    d301        ..      BCC      0xda ; __scatterload_copy + 18
        0x000000d6:    c830        0.      LDM      r0!,{r4,r5}
        0x000000d8:    c130        0.      STM      r1!,{r4,r5}
        0x000000da:    d501        ..      BPL      0xe0 ; __scatterload_copy + 24
        0x000000dc:    6804        .h      LDR      r4,[r0,#0]
        0x000000de:    600c        .`      STR      r4,[r1,#0]
        0x000000e0:    4770        pG      BX       lr
        0x000000e2:    0000        ..      MOVS     r0,r0
    !!handler_zi
    __scatterload_zeroinit
        0x000000e4:    2300        .#      MOVS     r3,#0
        0x000000e6:    2400        .$      MOVS     r4,#0
        0x000000e8:    2500        .%      MOVS     r5,#0
        0x000000ea:    2600        .&      MOVS     r6,#0
        0x000000ec:    3a10        .:      SUBS     r2,r2,#0x10
        0x000000ee:    d301        ..      BCC      0xf4 ; __scatterload_zeroinit + 16
        0x000000f0:    c178        x.      STM      r1!,{r3-r6}
        0x000000f2:    d8fb        ..      BHI      0xec ; __scatterload_zeroinit + 8
        0x000000f4:    0752        R.      LSLS     r2,r2,#29
        0x000000f6:    d300        ..      BCC      0xfa ; __scatterload_zeroinit + 22
        0x000000f8:    c130        0.      STM      r1!,{r4,r5}
        0x000000fa:    d500        ..      BPL      0xfe ; __scatterload_zeroinit + 26
        0x000000fc:    600b        .`      STR      r3,[r1,#0]
        0x000000fe:    4770        pG      BX       lr
    .ARM.Collect$$libinit$$00000000
    __rt_lib_init
        0x00000100:    b51f        ..      PUSH     {r0-r4,lr}
    .ARM.Collect$$libinit$$00000002
    .ARM.Collect$$libinit$$00000004
    .ARM.Collect$$libinit$$0000000A
    .ARM.Collect$$libinit$$0000000C
    .ARM.Collect$$libinit$$0000000E
    .ARM.Collect$$libinit$$00000011
    .ARM.Collect$$libinit$$00000013
    .ARM.Collect$$libinit$$00000015
    .ARM.Collect$$libinit$$00000017
    .ARM.Collect$$libinit$$00000019
    .ARM.Collect$$libinit$$0000001B
    .ARM.Collect$$libinit$$0000001D
    .ARM.Collect$$libinit$$0000001F
    .ARM.Collect$$libinit$$00000021
    .ARM.Collect$$libinit$$00000023
    .ARM.Collect$$libinit$$00000025
    .ARM.Collect$$libinit$$0000002C
    .ARM.Collect$$libinit$$0000002E
    .ARM.Collect$$libinit$$00000030
    .ARM.Collect$$libinit$$00000032
    .ARM.Collect$$libinit$$00000033
    __rt_lib_init_alloca_1
    __rt_lib_init_argv_1
    __rt_lib_init_atexit_1
    __rt_lib_init_clock_1
    __rt_lib_init_cpp_1
    __rt_lib_init_exceptions_1
    __rt_lib_init_fp_1
    __rt_lib_init_fp_trap_1
    __rt_lib_init_getenv_1
    __rt_lib_init_heap_1
    __rt_lib_init_lc_collate_1
    __rt_lib_init_lc_ctype_1
    __rt_lib_init_lc_monetary_1
    __rt_lib_init_lc_numeric_1
    __rt_lib_init_lc_time_1
    __rt_lib_init_preinit_1
    __rt_lib_init_rand_1
    __rt_lib_init_return
    __rt_lib_init_signal_1
    __rt_lib_init_stdio_1
    __rt_lib_init_user_alloc_1
        0x00000102:    bd1f        ..      POP      {r0-r4,pc}
    .ARM.Collect$$libshutdown$$00000000
    __rt_lib_shutdown
        0x00000104:    b510        ..      PUSH     {r4,lr}
    .ARM.Collect$$libshutdown$$00000002
    .ARM.Collect$$libshutdown$$00000004
    .ARM.Collect$$libshutdown$$00000006
    .ARM.Collect$$libshutdown$$00000009
    .ARM.Collect$$libshutdown$$0000000C
    .ARM.Collect$$libshutdown$$0000000E
    .ARM.Collect$$libshutdown$$00000011
    .ARM.Collect$$libshutdown$$00000012
    __rt_lib_shutdown_cpp_1
    __rt_lib_shutdown_fini_1
    __rt_lib_shutdown_fp_trap_1
    __rt_lib_shutdown_heap_1
    __rt_lib_shutdown_return
    __rt_lib_shutdown_signal_1
    __rt_lib_shutdown_stdio_1
    __rt_lib_shutdown_user_alloc_1
        0x00000106:    bd10        ..      POP      {r4,pc}
    .ARM.Collect$$rtentry$$00000000
    .ARM.Collect$$rtentry$$00000002
    .ARM.Collect$$rtentry$$00000004
    __rt_entry
    __rt_entry_presh_1
    __rt_entry_sh
        0x00000108:    f000fa6e    ..n.    BL       __user_setup_stackheap ; 0x5e8
        0x0000010c:    4611        .F      MOV      r1,r2
    .ARM.Collect$$rtentry$$00000009
    .ARM.Collect$$rtentry$$0000000A
    __rt_entry_li
    __rt_entry_postsh_1
        0x0000010e:    f7fffff7    ....    BL       __rt_lib_init ; 0x100
    .ARM.Collect$$rtentry$$0000000C
    .ARM.Collect$$rtentry$$0000000D
    __rt_entry_main
    __rt_entry_postli_1
        0x00000112:    f002f8d7    ....    BL       main ; 0x22c4
        0x00000116:    f000fa86    ....    BL       exit ; 0x626
    .ARM.Collect$$rtexit$$00000000
    __rt_exit
        0x0000011a:    b403        ..      PUSH     {r0,r1}
    .ARM.Collect$$rtexit$$00000002
    .ARM.Collect$$rtexit$$00000003
    __rt_exit_ls
    __rt_exit_prels_1
        0x0000011c:    f7fffff2    ....    BL       __rt_lib_shutdown ; 0x104
    .ARM.Collect$$rtexit$$00000004
    __rt_exit_exit
        0x00000120:    bc03        ..      POP      {r0,r1}
        0x00000122:    f000fabb    ....    BL       _sys_exit ; 0x69c
        0x00000126:    0000        ..      MOVS     r0,r0
    .text
    Reset_Handler
        0x00000128:    482c        ,H      LDR      r0,[pc,#176] ; [0x1dc] = 0x1f3d
        0x0000012a:    4680        .F      MOV      r8,r0
        0x0000012c:    46c1        .F      MOV      r9,r8
        0x0000012e:    4780        .G      BLX      r0
        0x00000130:    482b        +H      LDR      r0,[pc,#172] ; [0x1e0] = 0x85
        0x00000132:    4700        .G      BX       r0
    NMI_Handler
        0x00000134:    e7fe        ..      B        NMI_Handler ; 0x134
    HardFault_Handler
        0x00000136:    e7fe        ..      B        HardFault_Handler ; 0x136
    SVC_Handler
        0x00000138:    e7fe        ..      B        SVC_Handler ; 0x138
    PendSV_Handler
        0x0000013a:    e7fe        ..      B        PendSV_Handler ; 0x13a
    SysTick_Handler
        0x0000013c:    e7fe        ..      B        SysTick_Handler ; 0x13c
    UARTRX0_Handler
        0x0000013e:    b507        ..      PUSH     {r0-r2,lr}
        0x00000140:    f001ff0a    ....    BL       UARTRX0Handler ; 0x1f58
        0x00000144:    bd07        ..      POP      {r0-r2,pc}
    UARTTX0_Handler
        0x00000146:    b507        ..      PUSH     {r0-r2,lr}
        0x00000148:    f002f813    ....    BL       UARTTX0Handler ; 0x2172
        0x0000014c:    bd07        ..      POP      {r0-r2,pc}
    UARTRX1_Handler
        0x0000014e:    b507        ..      PUSH     {r0-r2,lr}
        0x00000150:    f001ff04    ....    BL       UARTRX1Handler ; 0x1f5c
        0x00000154:    bd07        ..      POP      {r0-r2,pc}
    UARTTX1_Handler
        0x00000156:    b507        ..      PUSH     {r0-r2,lr}
        0x00000158:    f002f80c    ....    BL       UARTTX1Handler ; 0x2174
        0x0000015c:    bd07        ..      POP      {r0-r2,pc}
    UARTRX2_Handler
        0x0000015e:    b507        ..      PUSH     {r0-r2,lr}
        0x00000160:    f002f806    ....    BL       UARTRX2Handler ; 0x2170
        0x00000164:    bd07        ..      POP      {r0-r2,pc}
    UARTTX2_Handler
        0x00000166:    b507        ..      PUSH     {r0-r2,lr}
        0x00000168:    f002f805    ....    BL       UARTTX2Handler ; 0x2176
        0x0000016c:    bd07        ..      POP      {r0-r2,pc}
    SPTIMER0_Handler
        0x0000016e:    b507        ..      PUSH     {r0-r2,lr}
        0x00000170:    f001fc00    ....    BL       SPTIMER0Handler ; 0x1974
        0x00000174:    bd07        ..      POP      {r0-r2,pc}
    SPTIMER1_Handler
        0x00000176:    b507        ..      PUSH     {r0-r2,lr}
        0x00000178:    f001fc22    ..".    BL       SPTIMER1Handler ; 0x19c0
        0x0000017c:    bd07        ..      POP      {r0-r2,pc}
    EXIT_Handler0
        0x0000017e:    b507        ..      PUSH     {r0-r2,lr}
        0x00000180:    f000fc18    ....    BL       EXITHandler0 ; 0x9b4
        0x00000184:    bd07        ..      POP      {r0-r2,pc}
    EXIT_Handler1
        0x00000186:    b507        ..      PUSH     {r0-r2,lr}
        0x00000188:    f000fc1f    ....    BL       EXITHandler1 ; 0x9ca
        0x0000018c:    bd07        ..      POP      {r0-r2,pc}
    EXIT_Handler2
        0x0000018e:    b507        ..      PUSH     {r0-r2,lr}
        0x00000190:    f000fc25    ..%.    BL       EXITHandler2 ; 0x9de
        0x00000194:    bd07        ..      POP      {r0-r2,pc}
    EXIT_Handler3
        0x00000196:    b507        ..      PUSH     {r0-r2,lr}
        0x00000198:    f000fc36    ..6.    BL       EXITHandler3 ; 0xa08
        0x0000019c:    bd07        ..      POP      {r0-r2,pc}
    EXIT_Handler4
        0x0000019e:    b507        ..      PUSH     {r0-r2,lr}
        0x000001a0:    f000fc36    ..6.    BL       EXITHandler4 ; 0xa10
        0x000001a4:    bd07        ..      POP      {r0-r2,pc}
    EXIT_Handler5
        0x000001a6:    b507        ..      PUSH     {r0-r2,lr}
        0x000001a8:    f000fc42    ..B.    BL       EXITHandler5 ; 0xa30
        0x000001ac:    bd07        ..      POP      {r0-r2,pc}
    EXIT_Handler6
        0x000001ae:    b507        ..      PUSH     {r0-r2,lr}
        0x000001b0:    f000fc58    ..X.    BL       EXITHandler6 ; 0xa64
        0x000001b4:    bd07        ..      POP      {r0-r2,pc}
    EXIT_Handler7
        0x000001b6:    b507        ..      PUSH     {r0-r2,lr}
        0x000001b8:    f000fc5c    ..\.    BL       EXITHandler7 ; 0xa74
        0x000001bc:    bd07        ..      POP      {r0-r2,pc}
    EXIT_Handler8
        0x000001be:    b507        ..      PUSH     {r0-r2,lr}
        0x000001c0:    f000fc5e    ..^.    BL       EXITHandler8 ; 0xa80
        0x000001c4:    bd07        ..      POP      {r0-r2,pc}
    EXIT_Handler9
        0x000001c6:    b507        ..      PUSH     {r0-r2,lr}
        0x000001c8:    f000fc60    ..`.    BL       EXITHandler9 ; 0xa8c
        0x000001cc:    bd07        ..      POP      {r0-r2,pc}
    $d
        0x000001ce:    0000        ..      DCW    0
    $t
    __user_initial_stackheap
        0x000001d0:    4804        .H      LDR      r0,[pc,#16] ; [0x1e4] = 0x20000590
        0x000001d2:    4905        .I      LDR      r1,[pc,#20] ; [0x1e8] = 0x20000890
        0x000001d4:    4a05        .J      LDR      r2,[pc,#20] ; [0x1ec] = 0x20000690
        0x000001d6:    4b06        .K      LDR      r3,[pc,#24] ; [0x1f0] = 0x20000690
        0x000001d8:    4770        pG      BX       lr
    $d
        0x000001da:    0000        ..      DCW    0
        0x000001dc:    00001f3d    =...    DCD    7997
        0x000001e0:    00000085    ....    DCD    133
        0x000001e4:    20000590    ...     DCD    536872336
        0x000001e8:    20000890    ...     DCD    536873104
        0x000001ec:    20000690    ...     DCD    536872592
        0x000001f0:    20000690    ...     DCD    536872592
    $t
    .text
    __aeabi_uidiv
    __aeabi_uidivmod
        0x000001f4:    2200        ."      MOVS     r2,#0
        0x000001f6:    0903        ..      LSRS     r3,r0,#4
        0x000001f8:    428b        .B      CMP      r3,r1
        0x000001fa:    d32c        ,.      BCC      0x256 ; __aeabi_idiv + 78
        0x000001fc:    0a03        ..      LSRS     r3,r0,#8
        0x000001fe:    428b        .B      CMP      r3,r1
        0x00000200:    d311        ..      BCC      0x226 ; __aeabi_idiv + 30
        0x00000202:    2300        .#      MOVS     r3,#0
        0x00000204:    469c        .F      MOV      r12,r3
        0x00000206:    e04e        N.      B        0x2a6 ; __aeabi_idiv + 158
    __aeabi_idiv
    __aeabi_idivmod
        0x00000208:    4603        .F      MOV      r3,r0
        0x0000020a:    430b        .C      ORRS     r3,r3,r1
        0x0000020c:    d43c        <.      BMI      0x288 ; __aeabi_idiv + 128
        0x0000020e:    2200        ."      MOVS     r2,#0
        0x00000210:    0843        C.      LSRS     r3,r0,#1
        0x00000212:    428b        .B      CMP      r3,r1
        0x00000214:    d331        1.      BCC      0x27a ; __aeabi_idiv + 114
        0x00000216:    0903        ..      LSRS     r3,r0,#4
        0x00000218:    428b        .B      CMP      r3,r1
        0x0000021a:    d31c        ..      BCC      0x256 ; __aeabi_idiv + 78
        0x0000021c:    0a03        ..      LSRS     r3,r0,#8
        0x0000021e:    428b        .B      CMP      r3,r1
        0x00000220:    d301        ..      BCC      0x226 ; __aeabi_idiv + 30
        0x00000222:    4694        .F      MOV      r12,r2
        0x00000224:    e03f        ?.      B        0x2a6 ; __aeabi_idiv + 158
        0x00000226:    09c3        ..      LSRS     r3,r0,#7
        0x00000228:    428b        .B      CMP      r3,r1
        0x0000022a:    d301        ..      BCC      0x230 ; __aeabi_idiv + 40
        0x0000022c:    01cb        ..      LSLS     r3,r1,#7
        0x0000022e:    1ac0        ..      SUBS     r0,r0,r3
        0x00000230:    4152        RA      ADCS     r2,r2,r2
        0x00000232:    0983        ..      LSRS     r3,r0,#6
        0x00000234:    428b        .B      CMP      r3,r1
        0x00000236:    d301        ..      BCC      0x23c ; __aeabi_idiv + 52
        0x00000238:    018b        ..      LSLS     r3,r1,#6
        0x0000023a:    1ac0        ..      SUBS     r0,r0,r3
        0x0000023c:    4152        RA      ADCS     r2,r2,r2
        0x0000023e:    0943        C.      LSRS     r3,r0,#5
        0x00000240:    428b        .B      CMP      r3,r1
        0x00000242:    d301        ..      BCC      0x248 ; __aeabi_idiv + 64
        0x00000244:    014b        K.      LSLS     r3,r1,#5
        0x00000246:    1ac0        ..      SUBS     r0,r0,r3
        0x00000248:    4152        RA      ADCS     r2,r2,r2
        0x0000024a:    0903        ..      LSRS     r3,r0,#4
        0x0000024c:    428b        .B      CMP      r3,r1
        0x0000024e:    d301        ..      BCC      0x254 ; __aeabi_idiv + 76
        0x00000250:    010b        ..      LSLS     r3,r1,#4
        0x00000252:    1ac0        ..      SUBS     r0,r0,r3
        0x00000254:    4152        RA      ADCS     r2,r2,r2
        0x00000256:    08c3        ..      LSRS     r3,r0,#3
        0x00000258:    428b        .B      CMP      r3,r1
        0x0000025a:    d301        ..      BCC      0x260 ; __aeabi_idiv + 88
        0x0000025c:    00cb        ..      LSLS     r3,r1,#3
        0x0000025e:    1ac0        ..      SUBS     r0,r0,r3
        0x00000260:    4152        RA      ADCS     r2,r2,r2
        0x00000262:    0883        ..      LSRS     r3,r0,#2
        0x00000264:    428b        .B      CMP      r3,r1
        0x00000266:    d301        ..      BCC      0x26c ; __aeabi_idiv + 100
        0x00000268:    008b        ..      LSLS     r3,r1,#2
        0x0000026a:    1ac0        ..      SUBS     r0,r0,r3
        0x0000026c:    4152        RA      ADCS     r2,r2,r2
        0x0000026e:    0843        C.      LSRS     r3,r0,#1
        0x00000270:    428b        .B      CMP      r3,r1
        0x00000272:    d301        ..      BCC      0x278 ; __aeabi_idiv + 112
        0x00000274:    004b        K.      LSLS     r3,r1,#1
        0x00000276:    1ac0        ..      SUBS     r0,r0,r3
        0x00000278:    4152        RA      ADCS     r2,r2,r2
        0x0000027a:    1a41        A.      SUBS     r1,r0,r1
        0x0000027c:    d200        ..      BCS      0x280 ; __aeabi_idiv + 120
        0x0000027e:    4601        .F      MOV      r1,r0
        0x00000280:    4152        RA      ADCS     r2,r2,r2
        0x00000282:    4610        .F      MOV      r0,r2
        0x00000284:    4770        pG      BX       lr
        0x00000286:    e05d        ].      B        0x344 ; __aeabi_idiv + 316
        0x00000288:    0fca        ..      LSRS     r2,r1,#31
        0x0000028a:    d000        ..      BEQ      0x28e ; __aeabi_idiv + 134
        0x0000028c:    4249        IB      RSBS     r1,r1,#0
        0x0000028e:    1003        ..      ASRS     r3,r0,#32
        0x00000290:    d300        ..      BCC      0x294 ; __aeabi_idiv + 140
        0x00000292:    4240        @B      RSBS     r0,r0,#0
        0x00000294:    4053        S@      EORS     r3,r3,r2
        0x00000296:    2200        ."      MOVS     r2,#0
        0x00000298:    469c        .F      MOV      r12,r3
        0x0000029a:    0903        ..      LSRS     r3,r0,#4
        0x0000029c:    428b        .B      CMP      r3,r1
        0x0000029e:    d32d        -.      BCC      0x2fc ; __aeabi_idiv + 244
        0x000002a0:    0a03        ..      LSRS     r3,r0,#8
        0x000002a2:    428b        .B      CMP      r3,r1
        0x000002a4:    d312        ..      BCC      0x2cc ; __aeabi_idiv + 196
        0x000002a6:    22fc        ."      MOVS     r2,#0xfc
        0x000002a8:    0189        ..      LSLS     r1,r1,#6
        0x000002aa:    ba12        ..      REV      r2,r2
        0x000002ac:    0a03        ..      LSRS     r3,r0,#8
        0x000002ae:    428b        .B      CMP      r3,r1
        0x000002b0:    d30c        ..      BCC      0x2cc ; __aeabi_idiv + 196
        0x000002b2:    0189        ..      LSLS     r1,r1,#6
        0x000002b4:    1192        ..      ASRS     r2,r2,#6
        0x000002b6:    428b        .B      CMP      r3,r1
        0x000002b8:    d308        ..      BCC      0x2cc ; __aeabi_idiv + 196
        0x000002ba:    0189        ..      LSLS     r1,r1,#6
        0x000002bc:    1192        ..      ASRS     r2,r2,#6
        0x000002be:    428b        .B      CMP      r3,r1
        0x000002c0:    d304        ..      BCC      0x2cc ; __aeabi_idiv + 196
        0x000002c2:    0189        ..      LSLS     r1,r1,#6
        0x000002c4:    d03a        :.      BEQ      0x33c ; __aeabi_idiv + 308
        0x000002c6:    1192        ..      ASRS     r2,r2,#6
        0x000002c8:    e000        ..      B        0x2cc ; __aeabi_idiv + 196
        0x000002ca:    0989        ..      LSRS     r1,r1,#6
        0x000002cc:    09c3        ..      LSRS     r3,r0,#7
        0x000002ce:    428b        .B      CMP      r3,r1
        0x000002d0:    d301        ..      BCC      0x2d6 ; __aeabi_idiv + 206
        0x000002d2:    01cb        ..      LSLS     r3,r1,#7
        0x000002d4:    1ac0        ..      SUBS     r0,r0,r3
        0x000002d6:    4152        RA      ADCS     r2,r2,r2
        0x000002d8:    0983        ..      LSRS     r3,r0,#6
        0x000002da:    428b        .B      CMP      r3,r1
        0x000002dc:    d301        ..      BCC      0x2e2 ; __aeabi_idiv + 218
        0x000002de:    018b        ..      LSLS     r3,r1,#6
        0x000002e0:    1ac0        ..      SUBS     r0,r0,r3
        0x000002e2:    4152        RA      ADCS     r2,r2,r2
        0x000002e4:    0943        C.      LSRS     r3,r0,#5
        0x000002e6:    428b        .B      CMP      r3,r1
        0x000002e8:    d301        ..      BCC      0x2ee ; __aeabi_idiv + 230
        0x000002ea:    014b        K.      LSLS     r3,r1,#5
        0x000002ec:    1ac0        ..      SUBS     r0,r0,r3
        0x000002ee:    4152        RA      ADCS     r2,r2,r2
        0x000002f0:    0903        ..      LSRS     r3,r0,#4
        0x000002f2:    428b        .B      CMP      r3,r1
        0x000002f4:    d301        ..      BCC      0x2fa ; __aeabi_idiv + 242
        0x000002f6:    010b        ..      LSLS     r3,r1,#4
        0x000002f8:    1ac0        ..      SUBS     r0,r0,r3
        0x000002fa:    4152        RA      ADCS     r2,r2,r2
        0x000002fc:    08c3        ..      LSRS     r3,r0,#3
        0x000002fe:    428b        .B      CMP      r3,r1
        0x00000300:    d301        ..      BCC      0x306 ; __aeabi_idiv + 254
        0x00000302:    00cb        ..      LSLS     r3,r1,#3
        0x00000304:    1ac0        ..      SUBS     r0,r0,r3
        0x00000306:    4152        RA      ADCS     r2,r2,r2
        0x00000308:    0883        ..      LSRS     r3,r0,#2
        0x0000030a:    428b        .B      CMP      r3,r1
        0x0000030c:    d301        ..      BCC      0x312 ; __aeabi_idiv + 266
        0x0000030e:    008b        ..      LSLS     r3,r1,#2
        0x00000310:    1ac0        ..      SUBS     r0,r0,r3
        0x00000312:    4152        RA      ADCS     r2,r2,r2
        0x00000314:    d2d9        ..      BCS      0x2ca ; __aeabi_idiv + 194
        0x00000316:    0843        C.      LSRS     r3,r0,#1
        0x00000318:    428b        .B      CMP      r3,r1
        0x0000031a:    d301        ..      BCC      0x320 ; __aeabi_idiv + 280
        0x0000031c:    004b        K.      LSLS     r3,r1,#1
        0x0000031e:    1ac0        ..      SUBS     r0,r0,r3
        0x00000320:    4152        RA      ADCS     r2,r2,r2
        0x00000322:    1a41        A.      SUBS     r1,r0,r1
        0x00000324:    d200        ..      BCS      0x328 ; __aeabi_idiv + 288
        0x00000326:    4601        .F      MOV      r1,r0
        0x00000328:    4663        cF      MOV      r3,r12
        0x0000032a:    4152        RA      ADCS     r2,r2,r2
        0x0000032c:    105b        [.      ASRS     r3,r3,#1
        0x0000032e:    4610        .F      MOV      r0,r2
        0x00000330:    d301        ..      BCC      0x336 ; __aeabi_idiv + 302
        0x00000332:    4240        @B      RSBS     r0,r0,#0
        0x00000334:    2b00        .+      CMP      r3,#0
        0x00000336:    d500        ..      BPL      0x33a ; __aeabi_idiv + 306
        0x00000338:    4249        IB      RSBS     r1,r1,#0
        0x0000033a:    4770        pG      BX       lr
        0x0000033c:    4663        cF      MOV      r3,r12
        0x0000033e:    105b        [.      ASRS     r3,r3,#1
        0x00000340:    d300        ..      BCC      0x344 ; __aeabi_idiv + 316
        0x00000342:    4240        @B      RSBS     r0,r0,#0
        0x00000344:    b501        ..      PUSH     {r0,lr}
        0x00000346:    2000        .       MOVS     r0,#0
        0x00000348:    46c0        .F      MOV      r8,r8
        0x0000034a:    46c0        .F      MOV      r8,r8
        0x0000034c:    bd02        ..      POP      {r1,pc}
    .text
    __use_two_region_memory
        0x0000034e:    4770        pG      BX       lr
    __rt_heap_escrow$2region
        0x00000350:    4770        pG      BX       lr
    __rt_heap_expand$2region
        0x00000352:    4770        pG      BX       lr
    .text
    __aeabi_fdiv
    _fdiv
        0x00000354:    b5f0        ..      PUSH     {r4-r7,lr}
        0x00000356:    25ff        .%      MOVS     r5,#0xff
        0x00000358:    042d        -.      LSLS     r5,r5,#16
        0x0000035a:    09c6        ..      LSRS     r6,r0,#7
        0x0000035c:    09c2        ..      LSRS     r2,r0,#7
        0x0000035e:    27ff        .'      MOVS     r7,#0xff
        0x00000360:    4604        .F      MOV      r4,r0
        0x00000362:    402e        .@      ANDS     r6,r6,r5
        0x00000364:    3701        .7      ADDS     r7,#1
        0x00000366:    09cb        ..      LSRS     r3,r1,#7
        0x00000368:    433e        >C      ORRS     r6,r6,r7
        0x0000036a:    4048        H@      EORS     r0,r0,r1
        0x0000036c:    402a        *@      ANDS     r2,r2,r5
        0x0000036e:    402b        +@      ANDS     r3,r3,r5
        0x00000370:    4607        .F      MOV      r7,r0
        0x00000372:    2a00        .*      CMP      r2,#0
        0x00000374:    d06b        k.      BEQ      0x44e ; __aeabi_fdiv + 250
        0x00000376:    2b00        .+      CMP      r3,#0
        0x00000378:    d069        i.      BEQ      0x44e ; __aeabi_fdiv + 250
        0x0000037a:    42aa        .B      CMP      r2,r5
        0x0000037c:    d067        g.      BEQ      0x44e ; __aeabi_fdiv + 250
        0x0000037e:    42ab        .B      CMP      r3,r5
        0x00000380:    d065        e.      BEQ      0x44e ; __aeabi_fdiv + 250
        0x00000382:    2800        .(      CMP      r0,#0
        0x00000384:    da00        ..      BGE      0x388 ; __aeabi_fdiv + 52
        0x00000386:    4632        2F      MOV      r2,r6
        0x00000388:    2501        .%      MOVS     r5,#1
        0x0000038a:    05ed        ..      LSLS     r5,r5,#23
        0x0000038c:    4329        )C      ORRS     r1,r1,r5
        0x0000038e:    432c        ,C      ORRS     r4,r4,r5
        0x00000390:    0209        ..      LSLS     r1,r1,#8
        0x00000392:    0220         .      LSLS     r0,r4,#8
        0x00000394:    0a09        ..      LSRS     r1,r1,#8
        0x00000396:    1ad2        ..      SUBS     r2,r2,r3
        0x00000398:    0c4b        K.      LSRS     r3,r1,#17
        0x0000039a:    247f        .$      MOVS     r4,#0x7f
        0x0000039c:    1ae3        ..      SUBS     r3,r4,r3
        0x0000039e:    4c43        CL      LDR      r4,[pc,#268] ; [0x4ac] = 0x2d0e
        0x000003a0:    0a00        ..      LSRS     r0,r0,#8
        0x000003a2:    447c        |D      ADD      r4,r4,pc
        0x000003a4:    5ce3        .\      LDRB     r3,[r4,r3]
        0x000003a6:    247d        }$      MOVS     r4,#0x7d
        0x000003a8:    0424        $.      LSLS     r4,r4,#16
        0x000003aa:    1912        ..      ADDS     r2,r2,r4
        0x000003ac:    1414        ..      ASRS     r4,r2,#16
        0x000003ae:    005b        [.      LSLS     r3,r3,#1
        0x000003b0:    18a2        ..      ADDS     r2,r4,r2
        0x000003b2:    4288        .B      CMP      r0,r1
        0x000003b4:    d301        ..      BCC      0x3ba ; __aeabi_fdiv + 102
        0x000003b6:    1c52        R.      ADDS     r2,r2,#1
        0x000003b8:    e000        ..      B        0x3bc ; __aeabi_fdiv + 104
        0x000003ba:    0040        @.      LSLS     r0,r0,#1
        0x000003bc:    4249        IB      RSBS     r1,r1,#0
        0x000003be:    460c        .F      MOV      r4,r1
        0x000003c0:    435c        \C      MULS     r4,r3,r4
        0x000003c2:    1124        $.      ASRS     r4,r4,#4
        0x000003c4:    435c        \C      MULS     r4,r3,r4
        0x000003c6:    01db        ..      LSLS     r3,r3,#7
        0x000003c8:    1564        d.      ASRS     r4,r4,#21
        0x000003ca:    18e3        ..      ADDS     r3,r4,r3
        0x000003cc:    0a04        ..      LSRS     r4,r0,#8
        0x000003ce:    435c        \C      MULS     r4,r3,r4
        0x000003d0:    02c5        ..      LSLS     r5,r0,#11
        0x000003d2:    0d20         .      LSRS     r0,r4,#20
        0x000003d4:    460c        .F      MOV      r4,r1
        0x000003d6:    4344        DC      MULS     r4,r0,r4
        0x000003d8:    1964        d.      ADDS     r4,r4,r5
        0x000003da:    0a25        %.      LSRS     r5,r4,#8
        0x000003dc:    435d        ]C      MULS     r5,r3,r5
        0x000003de:    0323        #.      LSLS     r3,r4,#12
        0x000003e0:    0cec        ..      LSRS     r4,r5,#19
        0x000003e2:    460d        .F      MOV      r5,r1
        0x000003e4:    4365        eC      MULS     r5,r4,r5
        0x000003e6:    0300        ..      LSLS     r0,r0,#12
        0x000003e8:    1900        ..      ADDS     r0,r0,r4
        0x000003ea:    18eb        ..      ADDS     r3,r5,r3
        0x000003ec:    424c        LB      RSBS     r4,r1,#0
        0x000003ee:    42a3        .B      CMP      r3,r4
        0x000003f0:    d301        ..      BCC      0x3f6 ; __aeabi_fdiv + 162
        0x000003f2:    185b        [.      ADDS     r3,r3,r1
        0x000003f4:    1c40        @.      ADDS     r0,r0,#1
        0x000003f6:    05d4        ..      LSLS     r4,r2,#23
        0x000003f8:    1820         .      ADDS     r0,r4,r0
        0x000003fa:    2b00        .+      CMP      r3,#0
        0x000003fc:    d007        ..      BEQ      0x40e ; __aeabi_fdiv + 186
        0x000003fe:    005b        [.      LSLS     r3,r3,#1
        0x00000400:    18c9        ..      ADDS     r1,r1,r3
        0x00000402:    d304        ..      BCC      0x40e ; __aeabi_fdiv + 186
        0x00000404:    1c40        @.      ADDS     r0,r0,#1
        0x00000406:    2900        .)      CMP      r1,#0
        0x00000408:    d101        ..      BNE      0x40e ; __aeabi_fdiv + 186
        0x0000040a:    0840        @.      LSRS     r0,r0,#1
        0x0000040c:    0040        @.      LSLS     r0,r0,#1
        0x0000040e:    213f        ?!      MOVS     r1,#0x3f
        0x00000410:    0489        ..      LSLS     r1,r1,#18
        0x00000412:    428a        .B      CMP      r2,r1
        0x00000414:    d309        ..      BCC      0x42a ; __aeabi_fdiv + 214
        0x00000416:    2a00        .*      CMP      r2,#0
        0x00000418:    dc08        ..      BGT      0x42c ; __aeabi_fdiv + 216
        0x0000041a:    0611        ..      LSLS     r1,r2,#24
        0x0000041c:    0f09        ..      LSRS     r1,r1,#28
        0x0000041e:    d004        ..      BEQ      0x42a ; __aeabi_fdiv + 214
        0x00000420:    2103        .!      MOVS     r1,#3
        0x00000422:    0749        I.      LSLS     r1,r1,#29
        0x00000424:    1840        @.      ADDS     r0,r0,r1
        0x00000426:    0fc0        ..      LSRS     r0,r0,#31
        0x00000428:    07c0        ..      LSLS     r0,r0,#31
        0x0000042a:    bdf0        ..      POP      {r4-r7,pc}
        0x0000042c:    2201        ."      MOVS     r2,#1
        0x0000042e:    0041        A.      LSLS     r1,r0,#1
        0x00000430:    0612        ..      LSLS     r2,r2,#24
        0x00000432:    1889        ..      ADDS     r1,r1,r2
        0x00000434:    227f        ."      MOVS     r2,#0x7f
        0x00000436:    0652        R.      LSLS     r2,r2,#25
        0x00000438:    4291        .B      CMP      r1,r2
        0x0000043a:    d2f6        ..      BCS      0x42a ; __aeabi_fdiv + 214
        0x0000043c:    2105        .!      MOVS     r1,#5
        0x0000043e:    0749        I.      LSLS     r1,r1,#29
        0x00000440:    42c8        .B      CMN      r0,r1
        0x00000442:    d501        ..      BPL      0x448 ; __aeabi_fdiv + 244
        0x00000444:    1090        ..      ASRS     r0,r2,#2
        0x00000446:    bdf0        ..      POP      {r4-r7,pc}
        0x00000448:    20ff        .       MOVS     r0,#0xff
        0x0000044a:    05c0        ..      LSLS     r0,r0,#23
        0x0000044c:    bdf0        ..      POP      {r4-r7,pc}
        0x0000044e:    2f00        ./      CMP      r7,#0
        0x00000450:    da00        ..      BGE      0x454 ; __aeabi_fdiv + 256
        0x00000452:    4632        2F      MOV      r2,r6
        0x00000454:    4816        .H      LDR      r0,[pc,#88] ; [0x4b0] = 0x7fc00000
        0x00000456:    42aa        .B      CMP      r2,r5
        0x00000458:    d207        ..      BCS      0x46a ; __aeabi_fdiv + 278
        0x0000045a:    42ab        .B      CMP      r3,r5
        0x0000045c:    d205        ..      BCS      0x46a ; __aeabi_fdiv + 278
        0x0000045e:    0219        ..      LSLS     r1,r3,#8
        0x00000460:    0e09        ..      LSRS     r1,r1,#24
        0x00000462:    d017        ..      BEQ      0x494 ; __aeabi_fdiv + 320
        0x00000464:    0ff8        ..      LSRS     r0,r7,#31
        0x00000466:    07c0        ..      LSLS     r0,r0,#31
        0x00000468:    bdf0        ..      POP      {r4-r7,pc}
        0x0000046a:    25ff        .%      MOVS     r5,#0xff
        0x0000046c:    0063        c.      LSLS     r3,r4,#1
        0x0000046e:    062d        -.      LSLS     r5,r5,#24
        0x00000470:    42ab        .B      CMP      r3,r5
        0x00000472:    d8f9        ..      BHI      0x468 ; __aeabi_fdiv + 276
        0x00000474:    0049        I.      LSLS     r1,r1,#1
        0x00000476:    42a9        .B      CMP      r1,r5
        0x00000478:    d8f6        ..      BHI      0x468 ; __aeabi_fdiv + 276
        0x0000047a:    42ab        .B      CMP      r3,r5
        0x0000047c:    d101        ..      BNE      0x482 ; __aeabi_fdiv + 302
        0x0000047e:    42a9        .B      CMP      r1,r5
        0x00000480:    d0f2        ..      BEQ      0x468 ; __aeabi_fdiv + 276
        0x00000482:    42a9        .B      CMP      r1,r5
        0x00000484:    d101        ..      BNE      0x48a ; __aeabi_fdiv + 310
        0x00000486:    2100        .!      MOVS     r1,#0
        0x00000488:    e001        ..      B        0x48e ; __aeabi_fdiv + 314
        0x0000048a:    0061        a.      LSLS     r1,r4,#1
        0x0000048c:    0849        I.      LSRS     r1,r1,#1
        0x0000048e:    05d0        ..      LSLS     r0,r2,#23
        0x00000490:    4308        .C      ORRS     r0,r0,r1
        0x00000492:    bdf0        ..      POP      {r4-r7,pc}
        0x00000494:    0211        ..      LSLS     r1,r2,#8
        0x00000496:    0e09        ..      LSRS     r1,r1,#24
        0x00000498:    d0fb        ..      BEQ      0x492 ; __aeabi_fdiv + 318
        0x0000049a:    20ff        .       MOVS     r0,#0xff
        0x0000049c:    4302        .C      ORRS     r2,r2,r0
        0x0000049e:    05d0        ..      LSLS     r0,r2,#23
        0x000004a0:    bdf0        ..      POP      {r4-r7,pc}
    _frdiv
        0x000004a2:    460a        .F      MOV      r2,r1
        0x000004a4:    4601        .F      MOV      r1,r0
        0x000004a6:    4610        .F      MOV      r0,r2
        0x000004a8:    e754        T.      B        __aeabi_fdiv ; 0x354
    $d
        0x000004aa:    0000        ..      DCW    0
        0x000004ac:    00002d0e    .-..    DCD    11534
        0x000004b0:    7fc00000    ....    DCD    2143289344
    $t
    .text
    __aeabi_f2uiz
    _ffixu
        0x000004b4:    0201        ..      LSLS     r1,r0,#8
        0x000004b6:    15c2        ..      ASRS     r2,r0,#23
        0x000004b8:    d004        ..      BEQ      0x4c4 ; __aeabi_f2uiz + 16
        0x000004ba:    2301        .#      MOVS     r3,#1
        0x000004bc:    07db        ..      LSLS     r3,r3,#31
        0x000004be:    4319        .C      ORRS     r1,r1,r3
        0x000004c0:    2a00        .*      CMP      r2,#0
        0x000004c2:    db0a        ..      BLT      0x4da ; __aeabi_f2uiz + 38
        0x000004c4:    239e        .#      MOVS     r3,#0x9e
        0x000004c6:    1a9a        ..      SUBS     r2,r3,r2
        0x000004c8:    d402        ..      BMI      0x4d0 ; __aeabi_f2uiz + 28
        0x000004ca:    4608        .F      MOV      r0,r1
        0x000004cc:    40d0        .@      LSRS     r0,r0,r2
        0x000004ce:    4770        pG      BX       lr
        0x000004d0:    22ff        ."      MOVS     r2,#0xff
        0x000004d2:    0041        A.      LSLS     r1,r0,#1
        0x000004d4:    0612        ..      LSLS     r2,r2,#24
        0x000004d6:    4291        .B      CMP      r1,r2
        0x000004d8:    d901        ..      BLS      0x4de ; __aeabi_f2uiz + 42
        0x000004da:    2000        .       MOVS     r0,#0
        0x000004dc:    4770        pG      BX       lr
        0x000004de:    17c0        ..      ASRS     r0,r0,#31
        0x000004e0:    43c0        .C      MVNS     r0,r0
        0x000004e2:    4770        pG      BX       lr
    .text
    __aeabi_i2f_normalise
        0x000004e4:    221f        ."      MOVS     r2,#0x1f
        0x000004e6:    0c03        ..      LSRS     r3,r0,#16
        0x000004e8:    d102        ..      BNE      0x4f0 ; __aeabi_i2f_normalise + 12
        0x000004ea:    220f        ."      MOVS     r2,#0xf
        0x000004ec:    0400        ..      LSLS     r0,r0,#16
        0x000004ee:    d01c        ..      BEQ      0x52a ; __aeabi_i2f_normalise + 70
        0x000004f0:    0e03        ..      LSRS     r3,r0,#24
        0x000004f2:    d101        ..      BNE      0x4f8 ; __aeabi_i2f_normalise + 20
        0x000004f4:    0200        ..      LSLS     r0,r0,#8
        0x000004f6:    3a08        .:      SUBS     r2,r2,#8
        0x000004f8:    0f03        ..      LSRS     r3,r0,#28
        0x000004fa:    d101        ..      BNE      0x500 ; __aeabi_i2f_normalise + 28
        0x000004fc:    0100        ..      LSLS     r0,r0,#4
        0x000004fe:    1f12        ..      SUBS     r2,r2,#4
        0x00000500:    0f83        ..      LSRS     r3,r0,#30
        0x00000502:    d101        ..      BNE      0x508 ; __aeabi_i2f_normalise + 36
        0x00000504:    0080        ..      LSLS     r0,r0,#2
        0x00000506:    1e92        ..      SUBS     r2,r2,#2
        0x00000508:    2800        .(      CMP      r0,#0
        0x0000050a:    db01        ..      BLT      0x510 ; __aeabi_i2f_normalise + 44
        0x0000050c:    0040        @.      LSLS     r0,r0,#1
        0x0000050e:    1e52        R.      SUBS     r2,r2,#1
        0x00000510:    05d2        ..      LSLS     r2,r2,#23
        0x00000512:    1851        Q.      ADDS     r1,r2,r1
        0x00000514:    1202        ..      ASRS     r2,r0,#8
        0x00000516:    1851        Q.      ADDS     r1,r2,r1
        0x00000518:    2219        ."      MOVS     r2,#0x19
        0x0000051a:    4090        .@      LSLS     r0,r0,r2
        0x0000051c:    d304        ..      BCC      0x528 ; __aeabi_i2f_normalise + 68
        0x0000051e:    1c49        I.      ADDS     r1,r1,#1
        0x00000520:    2800        .(      CMP      r0,#0
        0x00000522:    d101        ..      BNE      0x528 ; __aeabi_i2f_normalise + 68
        0x00000524:    0849        I.      LSRS     r1,r1,#1
        0x00000526:    0049        I.      LSLS     r1,r1,#1
        0x00000528:    4608        .F      MOV      r0,r1
        0x0000052a:    4770        pG      BX       lr
    __aeabi_i2f
    _fflt
        0x0000052c:    0fc1        ..      LSRS     r1,r0,#31
        0x0000052e:    07c9        ..      LSLS     r1,r1,#31
        0x00000530:    d000        ..      BEQ      0x534 ; __aeabi_i2f + 8
        0x00000532:    4240        @B      RSBS     r0,r0,#0
        0x00000534:    2201        ."      MOVS     r2,#1
        0x00000536:    0792        ..      LSLS     r2,r2,#30
        0x00000538:    4311        .C      ORRS     r1,r1,r2
        0x0000053a:    e7d3        ..      B        __aeabi_i2f_normalise ; 0x4e4
    __aeabi_ui2f
    _ffltu
        0x0000053c:    2101        .!      MOVS     r1,#1
        0x0000053e:    0789        ..      LSLS     r1,r1,#30
        0x00000540:    e7d0        ..      B        __aeabi_i2f_normalise ; 0x4e4
        0x00000542:    0000        ..      MOVS     r0,r0
    .text
    __fpl_fcmp_InfNaN
        0x00000544:    b510        ..      PUSH     {r4,lr}
        0x00000546:    23ff        .#      MOVS     r3,#0xff
        0x00000548:    061b        ..      LSLS     r3,r3,#24
        0x0000054a:    0044        D.      LSLS     r4,r0,#1
        0x0000054c:    429c        .B      CMP      r4,r3
        0x0000054e:    d81d        ..      BHI      0x58c ; __fpl_fcmp_InfNaN + 72
        0x00000550:    004c        L.      LSLS     r4,r1,#1
        0x00000552:    429c        .B      CMP      r4,r3
        0x00000554:    d81a        ..      BHI      0x58c ; __fpl_fcmp_InfNaN + 72
        0x00000556:    4603        .F      MOV      r3,r0
        0x00000558:    4a12        .J      LDR      r2,[pc,#72] ; [0x5a4] = 0x90000000
        0x0000055a:    430b        .C      ORRS     r3,r3,r1
        0x0000055c:    d407        ..      BMI      0x56e ; __fpl_fcmp_InfNaN + 42
        0x0000055e:    1a40        @.      SUBS     r0,r0,r1
        0x00000560:    d302        ..      BCC      0x568 ; __fpl_fcmp_InfNaN + 36
        0x00000562:    f3ef8000    ....    MRS      r0,APSR ; formerly CPSR
        0x00000566:    bd10        ..      POP      {r4,pc}
        0x00000568:    f3ef8000    ....    MRS      r0,APSR ; formerly CPSR
        0x0000056c:    bd10        ..      POP      {r4,pc}
        0x0000056e:    1a08        ..      SUBS     r0,r1,r0
        0x00000570:    d206        ..      BCS      0x580 ; __fpl_fcmp_InfNaN + 60
        0x00000572:    f3ef8000    ....    MRS      r0,APSR ; formerly CPSR
        0x00000576:    2101        .!      MOVS     r1,#1
        0x00000578:    4390        .C      BICS     r0,r0,r2
        0x0000057a:    07c9        ..      LSLS     r1,r1,#31
        0x0000057c:    4308        .C      ORRS     r0,r0,r1
        0x0000057e:    e002        ..      B        0x586 ; __fpl_fcmp_InfNaN + 66
        0x00000580:    f3ef8000    ....    MRS      r0,APSR ; formerly CPSR
        0x00000584:    4390        .C      BICS     r0,r0,r2
        0x00000586:    f3808800    ....    MSR      APSR_nzcvq,r0 ; formerly CPSR_f
        0x0000058a:    bd10        ..      POP      {r4,pc}
        0x0000058c:    230d        .#      MOVS     r3,#0xd
        0x0000058e:    041b        ..      LSLS     r3,r3,#16
        0x00000590:    421a        .B      TST      r2,r3
        0x00000592:    d004        ..      BEQ      0x59e ; __fpl_fcmp_InfNaN + 90
        0x00000594:    4611        .F      MOV      r1,r2
        0x00000596:    2000        .       MOVS     r0,#0
        0x00000598:    f000f806    ....    BL       __fpl_cmpreturn ; 0x5a8
        0x0000059c:    bd10        ..      POP      {r4,pc}
        0x0000059e:    f000f81b    ....    BL       __fpl_fcheck_NaN2 ; 0x5d8
        0x000005a2:    bd10        ..      POP      {r4,pc}
    $d
        0x000005a4:    90000000    ....    DCD    2415919104
    $t
    .text
    __fpl_cmpreturn
        0x000005a8:    02c8        ..      LSLS     r0,r1,#11
        0x000005aa:    d512        ..      BPL      0x5d2 ; __fpl_cmpreturn + 42
        0x000005ac:    0348        H.      LSLS     r0,r1,#13
        0x000005ae:    0f40        @.      LSRS     r0,r0,#29
        0x000005b0:    2800        .(      CMP      r0,#0
        0x000005b2:    d004        ..      BEQ      0x5be ; __fpl_cmpreturn + 22
        0x000005b4:    03c8        ..      LSLS     r0,r1,#15
        0x000005b6:    43c0        .C      MVNS     r0,r0
        0x000005b8:    2101        .!      MOVS     r1,#1
        0x000005ba:    4088        .@      LSLS     r0,r0,r1
        0x000005bc:    4770        pG      BX       lr
        0x000005be:    f3ef8000    ....    MRS      r0,APSR ; formerly CPSR
        0x000005c2:    0100        ..      LSLS     r0,r0,#4
        0x000005c4:    0900        ..      LSRS     r0,r0,#4
        0x000005c6:    2103        .!      MOVS     r1,#3
        0x000005c8:    0709        ..      LSLS     r1,r1,#28
        0x000005ca:    4308        .C      ORRS     r0,r0,r1
        0x000005cc:    f3808800    ....    MSR      APSR_nzcvq,r0 ; formerly CPSR_f
        0x000005d0:    4770        pG      BX       lr
        0x000005d2:    2000        .       MOVS     r0,#0
        0x000005d4:    4770        pG      BX       lr
        0x000005d6:    0000        ..      MOVS     r0,r0
    .text
    __fpl_fcheck_NaN2
        0x000005d8:    b510        ..      PUSH     {r4,lr}
        0x000005da:    4802        .H      LDR      r0,[pc,#8] ; [0x5e4] = 0x7fc00000
        0x000005dc:    f000f82b    ..+.    BL       __fpl_return_NaN ; 0x636
        0x000005e0:    bd10        ..      POP      {r4,pc}
    $d
        0x000005e2:    0000        ..      DCW    0
        0x000005e4:    7fc00000    ....    DCD    2143289344
    $t
    .text
    __user_setup_stackheap
        0x000005e8:    4675        uF      MOV      r5,lr
        0x000005ea:    f000f853    ..S.    BL       __user_libspace ; 0x694
        0x000005ee:    46ae        .F      MOV      lr,r5
        0x000005f0:    0005        ..      MOVS     r5,r0
        0x000005f2:    4669        iF      MOV      r1,sp
        0x000005f4:    4653        SF      MOV      r3,r10
        0x000005f6:    08c0        ..      LSRS     r0,r0,#3
        0x000005f8:    00c0        ..      LSLS     r0,r0,#3
        0x000005fa:    4685        .F      MOV      sp,r0
        0x000005fc:    b018        ..      ADD      sp,sp,#0x60
        0x000005fe:    b520         .      PUSH     {r5,lr}
        0x00000600:    f7fffde6    ....    BL       __user_initial_stackheap ; 0x1d0
        0x00000604:    bc60        `.      POP      {r5,r6}
        0x00000606:    2700        .'      MOVS     r7,#0
        0x00000608:    0849        I.      LSRS     r1,r1,#1
        0x0000060a:    46b6        .F      MOV      lr,r6
        0x0000060c:    2600        .&      MOVS     r6,#0
        0x0000060e:    c5c0        ..      STM      r5!,{r6,r7}
        0x00000610:    c5c0        ..      STM      r5!,{r6,r7}
        0x00000612:    c5c0        ..      STM      r5!,{r6,r7}
        0x00000614:    c5c0        ..      STM      r5!,{r6,r7}
        0x00000616:    c5c0        ..      STM      r5!,{r6,r7}
        0x00000618:    c5c0        ..      STM      r5!,{r6,r7}
        0x0000061a:    c5c0        ..      STM      r5!,{r6,r7}
        0x0000061c:    c5c0        ..      STM      r5!,{r6,r7}
        0x0000061e:    3d40        @=      SUBS     r5,r5,#0x40
        0x00000620:    0049        I.      LSLS     r1,r1,#1
        0x00000622:    468d        .F      MOV      sp,r1
        0x00000624:    4770        pG      BX       lr
    .text
    exit
        0x00000626:    b510        ..      PUSH     {r4,lr}
        0x00000628:    4604        .F      MOV      r4,r0
        0x0000062a:    46c0        .F      MOV      r8,r8
        0x0000062c:    46c0        .F      MOV      r8,r8
        0x0000062e:    4620         F      MOV      r0,r4
        0x00000630:    f7fffd73    ..s.    BL       __rt_exit ; 0x11a
        0x00000634:    bd10        ..      POP      {r4,pc}
    .text
    __fpl_return_NaN
        0x00000636:    b510        ..      PUSH     {r4,lr}
        0x00000638:    460c        .F      MOV      r4,r1
        0x0000063a:    0711        ..      LSLS     r1,r2,#28
        0x0000063c:    0f09        ..      LSRS     r1,r1,#28
        0x0000063e:    2909        .)      CMP      r1,#9
        0x00000640:    d004        ..      BEQ      0x64c ; __fpl_return_NaN + 22
        0x00000642:    290a        .)      CMP      r1,#0xa
        0x00000644:    d00a        ..      BEQ      0x65c ; __fpl_return_NaN + 38
        0x00000646:    2908        .)      CMP      r1,#8
        0x00000648:    d10c        ..      BNE      0x664 ; __fpl_return_NaN + 46
        0x0000064a:    e004        ..      B        0x656 ; __fpl_return_NaN + 32
        0x0000064c:    4611        .F      MOV      r1,r2
        0x0000064e:    2008        .       MOVS     r0,#8
        0x00000650:    f7ffffaa    ....    BL       __fpl_cmpreturn ; 0x5a8
        0x00000654:    e006        ..      B        0x664 ; __fpl_return_NaN + 46
        0x00000656:    0651        Q.      LSLS     r1,r2,#25
        0x00000658:    d506        ..      BPL      0x668 ; __fpl_return_NaN + 50
        0x0000065a:    e001        ..      B        0x660 ; __fpl_return_NaN + 42
        0x0000065c:    0651        Q.      LSLS     r1,r2,#25
        0x0000065e:    d501        ..      BPL      0x664 ; __fpl_return_NaN + 46
        0x00000660:    2001        .       MOVS     r0,#1
        0x00000662:    07c0        ..      LSLS     r0,r0,#31
        0x00000664:    4621        !F      MOV      r1,r4
        0x00000666:    bd10        ..      POP      {r4,pc}
        0x00000668:    06d1        ..      LSLS     r1,r2,#27
        0x0000066a:    d507        ..      BPL      0x67c ; __fpl_return_NaN + 70
        0x0000066c:    0101        ..      LSLS     r1,r0,#4
        0x0000066e:    0909        ..      LSRS     r1,r1,#4
        0x00000670:    08cc        ..      LSRS     r4,r1,#3
        0x00000672:    0749        I.      LSLS     r1,r1,#29
        0x00000674:    0e00        ..      LSRS     r0,r0,#24
        0x00000676:    0600        ..      LSLS     r0,r0,#24
        0x00000678:    4304        .C      ORRS     r4,r4,r0
        0x0000067a:    e009        ..      B        0x690 ; __fpl_return_NaN + 90
        0x0000067c:    0f41        A.      LSRS     r1,r0,#29
        0x0000067e:    0220         .      LSLS     r0,r4,#8
        0x00000680:    0749        I.      LSLS     r1,r1,#29
        0x00000682:    0a00        ..      LSRS     r0,r0,#8
        0x00000684:    4301        .C      ORRS     r1,r1,r0
        0x00000686:    0e20         .      LSRS     r0,r4,#24
        0x00000688:    0600        ..      LSLS     r0,r0,#24
        0x0000068a:    221d        ."      MOVS     r2,#0x1d
        0x0000068c:    41d1        .A      RORS     r1,r1,r2
        0x0000068e:    4301        .C      ORRS     r1,r1,r0
        0x00000690:    4608        .F      MOV      r0,r1
        0x00000692:    e7e7        ..      B        0x664 ; __fpl_return_NaN + 46
    .text
    __user_libspace
    __user_perproc_libspace
    __user_perthread_libspace
        0x00000694:    4800        .H      LDR      r0,[pc,#0] ; [0x698] = 0x2000052c
        0x00000696:    4770        pG      BX       lr
    $d
        0x00000698:    2000052c    ,..     DCD    536872236
    $t
    .text
    _sys_exit
        0x0000069c:    4901        .I      LDR      r1,[pc,#4] ; [0x6a4] = 0x20026
        0x0000069e:    2018        .       MOVS     r0,#0x18
        0x000006a0:    beab        ..      BKPT     #0xab
        0x000006a2:    e7fe        ..      B        0x6a2 ; _sys_exit + 6
    $d
        0x000006a4:    00020026    &...    DCD    131110
    $t
    .text
    __I$use$semihosting
    __use_no_semihosting_swi
        0x000006a8:    4770        pG      BX       lr
    .text
    __semihosting_library_function
        0x000006aa:    0000        ..      MOVS     r0,r0
    i.Bird1Down
    Bird1Down
        0x000006ac:    2001        .       MOVS     r0,#1
        0x000006ae:    4901        .I      LDR      r1,[pc,#4] ; [0x6b4] = 0x40003000
        0x000006b0:    6308        .c      STR      r0,[r1,#0x30]
        0x000006b2:    4770        pG      BX       lr
    $d
        0x000006b4:    40003000    .0.@    DCD    1073754112
    $t
    i.Bird1Down_Disable
    Bird1Down_Disable
        0x000006b8:    2000        .       MOVS     r0,#0
        0x000006ba:    4901        .I      LDR      r1,[pc,#4] ; [0x6c0] = 0x40003000
        0x000006bc:    6308        .c      STR      r0,[r1,#0x30]
        0x000006be:    4770        pG      BX       lr
    $d
        0x000006c0:    40003000    .0.@    DCD    1073754112
    $t
    i.Bird1Left
    Bird1Left
        0x000006c4:    2001        .       MOVS     r0,#1
        0x000006c6:    4901        .I      LDR      r1,[pc,#4] ; [0x6cc] = 0x40003000
        0x000006c8:    6348        Hc      STR      r0,[r1,#0x34]
        0x000006ca:    4770        pG      BX       lr
    $d
        0x000006cc:    40003000    .0.@    DCD    1073754112
    $t
    i.Bird1Left_Disable
    Bird1Left_Disable
        0x000006d0:    2000        .       MOVS     r0,#0
        0x000006d2:    4901        .I      LDR      r1,[pc,#4] ; [0x6d8] = 0x40003000
        0x000006d4:    6348        Hc      STR      r0,[r1,#0x34]
        0x000006d6:    4770        pG      BX       lr
    $d
        0x000006d8:    40003000    .0.@    DCD    1073754112
    $t
    i.Bird1Right
    Bird1Right
        0x000006dc:    2001        .       MOVS     r0,#1
        0x000006de:    4901        .I      LDR      r1,[pc,#4] ; [0x6e4] = 0x40003000
        0x000006e0:    6388        .c      STR      r0,[r1,#0x38]
        0x000006e2:    4770        pG      BX       lr
    $d
        0x000006e4:    40003000    .0.@    DCD    1073754112
    $t
    i.Bird1Right_Disable
    Bird1Right_Disable
        0x000006e8:    2000        .       MOVS     r0,#0
        0x000006ea:    4901        .I      LDR      r1,[pc,#4] ; [0x6f0] = 0x40003000
        0x000006ec:    6388        .c      STR      r0,[r1,#0x38]
        0x000006ee:    4770        pG      BX       lr
    $d
        0x000006f0:    40003000    .0.@    DCD    1073754112
    $t
    i.Bird1Up
    Bird1Up
        0x000006f4:    2001        .       MOVS     r0,#1
        0x000006f6:    4901        .I      LDR      r1,[pc,#4] ; [0x6fc] = 0x40003000
        0x000006f8:    62c8        .b      STR      r0,[r1,#0x2c]
        0x000006fa:    4770        pG      BX       lr
    $d
        0x000006fc:    40003000    .0.@    DCD    1073754112
    $t
    i.Bird1Up_Disable
    Bird1Up_Disable
        0x00000700:    2000        .       MOVS     r0,#0
        0x00000702:    4901        .I      LDR      r1,[pc,#4] ; [0x708] = 0x40003000
        0x00000704:    62c8        .b      STR      r0,[r1,#0x2c]
        0x00000706:    4770        pG      BX       lr
    $d
        0x00000708:    40003000    .0.@    DCD    1073754112
    $t
    i.Bird1_Control
    Bird1_Control
        0x0000070c:    b500        ..      PUSH     {lr}
        0x0000070e:    f000fc09    ....    BL       GetGameState ; 0xf24
        0x00000712:    2804        .(      CMP      r0,#4
        0x00000714:    d003        ..      BEQ      0x71e ; Bird1_Control + 18
        0x00000716:    f000fc05    ....    BL       GetGameState ; 0xf24
        0x0000071a:    2808        .(      CMP      r0,#8
        0x0000071c:    d12c        ,.      BNE      0x778 ; Bird1_Control + 108
        0x0000071e:    481b        .H      LDR      r0,[pc,#108] ; [0x78c] = 0x20000060
        0x00000720:    6800        .h      LDR      r0,[r0,#0]
        0x00000722:    2814        .(      CMP      r0,#0x14
        0x00000724:    da04        ..      BGE      0x730 ; Bird1_Control + 36
        0x00000726:    f7ffffcd    ....    BL       Bird1Left ; 0x6c4
        0x0000072a:    f7ffffdd    ....    BL       Bird1Right_Disable ; 0x6e8
        0x0000072e:    e00c        ..      B        0x74a ; Bird1_Control + 62
        0x00000730:    4816        .H      LDR      r0,[pc,#88] ; [0x78c] = 0x20000060
        0x00000732:    6800        .h      LDR      r0,[r0,#0]
        0x00000734:    28c8        .(      CMP      r0,#0xc8
        0x00000736:    dd04        ..      BLE      0x742 ; Bird1_Control + 54
        0x00000738:    f7ffffd0    ....    BL       Bird1Right ; 0x6dc
        0x0000073c:    f7ffffc8    ....    BL       Bird1Left_Disable ; 0x6d0
        0x00000740:    e003        ..      B        0x74a ; Bird1_Control + 62
        0x00000742:    f7ffffd1    ....    BL       Bird1Right_Disable ; 0x6e8
        0x00000746:    f7ffffc3    ....    BL       Bird1Left_Disable ; 0x6d0
        0x0000074a:    4811        .H      LDR      r0,[pc,#68] ; [0x790] = 0x20000064
        0x0000074c:    6800        .h      LDR      r0,[r0,#0]
        0x0000074e:    2864        d(      CMP      r0,#0x64
        0x00000750:    da04        ..      BGE      0x75c ; Bird1_Control + 80
        0x00000752:    f7ffffcf    ....    BL       Bird1Up ; 0x6f4
        0x00000756:    f7ffffaf    ....    BL       Bird1Down_Disable ; 0x6b8
        0x0000075a:    e015        ..      B        0x788 ; Bird1_Control + 124
        0x0000075c:    480c        .H      LDR      r0,[pc,#48] ; [0x790] = 0x20000064
        0x0000075e:    6800        .h      LDR      r0,[r0,#0]
        0x00000760:    28fe        .(      CMP      r0,#0xfe
        0x00000762:    dd04        ..      BLE      0x76e ; Bird1_Control + 98
        0x00000764:    f7ffffa2    ....    BL       Bird1Down ; 0x6ac
        0x00000768:    f7ffffca    ....    BL       Bird1Up_Disable ; 0x700
        0x0000076c:    e00c        ..      B        0x788 ; Bird1_Control + 124
        0x0000076e:    f7ffffa3    ....    BL       Bird1Down_Disable ; 0x6b8
        0x00000772:    f7ffffc5    ....    BL       Bird1Up_Disable ; 0x700
        0x00000776:    e007        ..      B        0x788 ; Bird1_Control + 124
        0x00000778:    f7ffffc2    ....    BL       Bird1Up_Disable ; 0x700
        0x0000077c:    f7ffff9c    ....    BL       Bird1Down_Disable ; 0x6b8
        0x00000780:    f7ffffa6    ....    BL       Bird1Left_Disable ; 0x6d0
        0x00000784:    f7ffffb0    ....    BL       Bird1Right_Disable ; 0x6e8
        0x00000788:    bd00        ..      POP      {pc}
    $d
        0x0000078a:    0000        ..      DCW    0
        0x0000078c:    20000060    `..     DCD    536871008
        0x00000790:    20000064    d..     DCD    536871012
    $t
    i.Bird2Down
    Bird2Down
        0x00000794:    2001        .       MOVS     r0,#1
        0x00000796:    4901        .I      LDR      r1,[pc,#4] ; [0x79c] = 0x40003040
        0x00000798:    6008        .`      STR      r0,[r1,#0]
        0x0000079a:    4770        pG      BX       lr
    $d
        0x0000079c:    40003040    @0.@    DCD    1073754176
    $t
    i.Bird2Down_Disable
    Bird2Down_Disable
        0x000007a0:    2000        .       MOVS     r0,#0
        0x000007a2:    4901        .I      LDR      r1,[pc,#4] ; [0x7a8] = 0x40003040
        0x000007a4:    6008        .`      STR      r0,[r1,#0]
        0x000007a6:    4770        pG      BX       lr
    $d
        0x000007a8:    40003040    @0.@    DCD    1073754176
    $t
    i.Bird2Left
    Bird2Left
        0x000007ac:    2001        .       MOVS     r0,#1
        0x000007ae:    4901        .I      LDR      r1,[pc,#4] ; [0x7b4] = 0x40003040
        0x000007b0:    6048        H`      STR      r0,[r1,#4]
        0x000007b2:    4770        pG      BX       lr
    $d
        0x000007b4:    40003040    @0.@    DCD    1073754176
    $t
    i.Bird2Left_Disable
    Bird2Left_Disable
        0x000007b8:    2000        .       MOVS     r0,#0
        0x000007ba:    4901        .I      LDR      r1,[pc,#4] ; [0x7c0] = 0x40003040
        0x000007bc:    6048        H`      STR      r0,[r1,#4]
        0x000007be:    4770        pG      BX       lr
    $d
        0x000007c0:    40003040    @0.@    DCD    1073754176
    $t
    i.Bird2Right
    Bird2Right
        0x000007c4:    2001        .       MOVS     r0,#1
        0x000007c6:    4901        .I      LDR      r1,[pc,#4] ; [0x7cc] = 0x40003040
        0x000007c8:    6088        .`      STR      r0,[r1,#8]
        0x000007ca:    4770        pG      BX       lr
    $d
        0x000007cc:    40003040    @0.@    DCD    1073754176
    $t
    i.Bird2Right_Disable
    Bird2Right_Disable
        0x000007d0:    2000        .       MOVS     r0,#0
        0x000007d2:    4901        .I      LDR      r1,[pc,#4] ; [0x7d8] = 0x40003040
        0x000007d4:    6088        .`      STR      r0,[r1,#8]
        0x000007d6:    4770        pG      BX       lr
    $d
        0x000007d8:    40003040    @0.@    DCD    1073754176
    $t
    i.Bird2Up
    Bird2Up
        0x000007dc:    2001        .       MOVS     r0,#1
        0x000007de:    4901        .I      LDR      r1,[pc,#4] ; [0x7e4] = 0x40003000
        0x000007e0:    63c8        .c      STR      r0,[r1,#0x3c]
        0x000007e2:    4770        pG      BX       lr
    $d
        0x000007e4:    40003000    .0.@    DCD    1073754112
    $t
    i.Bird2Up_Disable
    Bird2Up_Disable
        0x000007e8:    2000        .       MOVS     r0,#0
        0x000007ea:    4901        .I      LDR      r1,[pc,#4] ; [0x7f0] = 0x40003000
        0x000007ec:    63c8        .c      STR      r0,[r1,#0x3c]
        0x000007ee:    4770        pG      BX       lr
    $d
        0x000007f0:    40003000    .0.@    DCD    1073754112
    $t
    i.Bird2_Control
    Bird2_Control
        0x000007f4:    b510        ..      PUSH     {r4,lr}
        0x000007f6:    f000fb95    ....    BL       GetGameState ; 0xf24
        0x000007fa:    2804        .(      CMP      r0,#4
        0x000007fc:    d003        ..      BEQ      0x806 ; Bird2_Control + 18
        0x000007fe:    f000fb91    ....    BL       GetGameState ; 0xf24
        0x00000802:    2808        .(      CMP      r0,#8
        0x00000804:    d169        i.      BNE      0x8da ; Bird2_Control + 230
        0x00000806:    4935        5I      LDR      r1,[pc,#212] ; [0x8dc] = 0x41200000
        0x00000808:    4835        5H      LDR      r0,[pc,#212] ; [0x8e0] = 0x20000040
        0x0000080a:    6800        .h      LDR      r0,[r0,#0]
        0x0000080c:    f001fec0    ....    BL       __aeabi_cfrcmple ; 0x2590
        0x00000810:    d211        ..      BCS      0x836 ; Bird2_Control + 66
        0x00000812:    f7ffffe9    ....    BL       Bird2Up_Disable ; 0x7e8
        0x00000816:    f7ffffbd    ....    BL       Bird2Down ; 0x794
        0x0000081a:    4932        2I      LDR      r1,[pc,#200] ; [0x8e4] = 0x42200000
        0x0000081c:    4830        0H      LDR      r0,[pc,#192] ; [0x8e0] = 0x20000040
        0x0000081e:    6800        .h      LDR      r0,[r0,#0]
        0x00000820:    f001feb6    ....    BL       __aeabi_cfrcmple ; 0x2590
        0x00000824:    d203        ..      BCS      0x82e ; Bird2_Control + 58
        0x00000826:    2001        .       MOVS     r0,#1
        0x00000828:    492f        /I      LDR      r1,[pc,#188] ; [0x8e8] = 0x40003040
        0x0000082a:    62c8        .b      STR      r0,[r1,#0x2c]
        0x0000082c:    e021        !.      B        0x872 ; Bird2_Control + 126
        0x0000082e:    2000        .       MOVS     r0,#0
        0x00000830:    492d        -I      LDR      r1,[pc,#180] ; [0x8e8] = 0x40003040
        0x00000832:    62c8        .b      STR      r0,[r1,#0x2c]
        0x00000834:    e01d        ..      B        0x872 ; Bird2_Control + 126
        0x00000836:    492d        -I      LDR      r1,[pc,#180] ; [0x8ec] = 0xc1200000
        0x00000838:    4829        )H      LDR      r0,[pc,#164] ; [0x8e0] = 0x20000040
        0x0000083a:    6800        .h      LDR      r0,[r0,#0]
        0x0000083c:    f001fe26    ..&.    BL       __aeabi_cfcmple ; 0x248c
        0x00000840:    d211        ..      BCS      0x866 ; Bird2_Control + 114
        0x00000842:    f7ffffad    ....    BL       Bird2Down_Disable ; 0x7a0
        0x00000846:    f7ffffc9    ....    BL       Bird2Up ; 0x7dc
        0x0000084a:    4929        )I      LDR      r1,[pc,#164] ; [0x8f0] = 0xc2200000
        0x0000084c:    4824        $H      LDR      r0,[pc,#144] ; [0x8e0] = 0x20000040
        0x0000084e:    6800        .h      LDR      r0,[r0,#0]
        0x00000850:    f001fe1c    ....    BL       __aeabi_cfcmple ; 0x248c
        0x00000854:    d203        ..      BCS      0x85e ; Bird2_Control + 106
        0x00000856:    2001        .       MOVS     r0,#1
        0x00000858:    4923        #I      LDR      r1,[pc,#140] ; [0x8e8] = 0x40003040
        0x0000085a:    62c8        .b      STR      r0,[r1,#0x2c]
        0x0000085c:    e009        ..      B        0x872 ; Bird2_Control + 126
        0x0000085e:    2000        .       MOVS     r0,#0
        0x00000860:    4921        !I      LDR      r1,[pc,#132] ; [0x8e8] = 0x40003040
        0x00000862:    62c8        .b      STR      r0,[r1,#0x2c]
        0x00000864:    e005        ..      B        0x872 ; Bird2_Control + 126
        0x00000866:    2000        .       MOVS     r0,#0
        0x00000868:    491f        .I      LDR      r1,[pc,#124] ; [0x8e8] = 0x40003040
        0x0000086a:    3940        @9      SUBS     r1,r1,#0x40
        0x0000086c:    63c8        .c      STR      r0,[r1,#0x3c]
        0x0000086e:    491e        .I      LDR      r1,[pc,#120] ; [0x8e8] = 0x40003040
        0x00000870:    6008        .`      STR      r0,[r1,#0]
        0x00000872:    491a        .I      LDR      r1,[pc,#104] ; [0x8dc] = 0x41200000
        0x00000874:    481f        .H      LDR      r0,[pc,#124] ; [0x8f4] = 0x2000003c
        0x00000876:    6800        .h      LDR      r0,[r0,#0]
        0x00000878:    f001fe8a    ....    BL       __aeabi_cfrcmple ; 0x2590
        0x0000087c:    d211        ..      BCS      0x8a2 ; Bird2_Control + 174
        0x0000087e:    f7ffff9b    ....    BL       Bird2Left_Disable ; 0x7b8
        0x00000882:    f7ffff9f    ....    BL       Bird2Right ; 0x7c4
        0x00000886:    4917        .I      LDR      r1,[pc,#92] ; [0x8e4] = 0x42200000
        0x00000888:    481a        .H      LDR      r0,[pc,#104] ; [0x8f4] = 0x2000003c
        0x0000088a:    6800        .h      LDR      r0,[r0,#0]
        0x0000088c:    f001fe80    ....    BL       __aeabi_cfrcmple ; 0x2590
        0x00000890:    d203        ..      BCS      0x89a ; Bird2_Control + 166
        0x00000892:    2001        .       MOVS     r0,#1
        0x00000894:    4914        .I      LDR      r1,[pc,#80] ; [0x8e8] = 0x40003040
        0x00000896:    62c8        .b      STR      r0,[r1,#0x2c]
        0x00000898:    e01f        ..      B        0x8da ; Bird2_Control + 230
        0x0000089a:    2000        .       MOVS     r0,#0
        0x0000089c:    4912        .I      LDR      r1,[pc,#72] ; [0x8e8] = 0x40003040
        0x0000089e:    62c8        .b      STR      r0,[r1,#0x2c]
        0x000008a0:    e01b        ..      B        0x8da ; Bird2_Control + 230
        0x000008a2:    4912        .I      LDR      r1,[pc,#72] ; [0x8ec] = 0xc1200000
        0x000008a4:    4813        .H      LDR      r0,[pc,#76] ; [0x8f4] = 0x2000003c
        0x000008a6:    6800        .h      LDR      r0,[r0,#0]
        0x000008a8:    f001fdf0    ....    BL       __aeabi_cfcmple ; 0x248c
        0x000008ac:    d211        ..      BCS      0x8d2 ; Bird2_Control + 222
        0x000008ae:    f7ffff8f    ....    BL       Bird2Right_Disable ; 0x7d0
        0x000008b2:    f7ffff7b    ..{.    BL       Bird2Left ; 0x7ac
        0x000008b6:    490e        .I      LDR      r1,[pc,#56] ; [0x8f0] = 0xc2200000
        0x000008b8:    480e        .H      LDR      r0,[pc,#56] ; [0x8f4] = 0x2000003c
        0x000008ba:    6800        .h      LDR      r0,[r0,#0]
        0x000008bc:    f001fde6    ....    BL       __aeabi_cfcmple ; 0x248c
        0x000008c0:    d203        ..      BCS      0x8ca ; Bird2_Control + 214
        0x000008c2:    2001        .       MOVS     r0,#1
        0x000008c4:    4908        .I      LDR      r1,[pc,#32] ; [0x8e8] = 0x40003040
        0x000008c6:    62c8        .b      STR      r0,[r1,#0x2c]
        0x000008c8:    e007        ..      B        0x8da ; Bird2_Control + 230
        0x000008ca:    2000        .       MOVS     r0,#0
        0x000008cc:    4906        .I      LDR      r1,[pc,#24] ; [0x8e8] = 0x40003040
        0x000008ce:    62c8        .b      STR      r0,[r1,#0x2c]
        0x000008d0:    e003        ..      B        0x8da ; Bird2_Control + 230
        0x000008d2:    2000        .       MOVS     r0,#0
        0x000008d4:    4904        .I      LDR      r1,[pc,#16] ; [0x8e8] = 0x40003040
        0x000008d6:    6048        H`      STR      r0,[r1,#4]
        0x000008d8:    6088        .`      STR      r0,[r1,#8]
        0x000008da:    bd10        ..      POP      {r4,pc}
    $d
        0x000008dc:    41200000    .. A    DCD    1092616192
        0x000008e0:    20000040    @..     DCD    536870976
        0x000008e4:    42200000    .. B    DCD    1109393408
        0x000008e8:    40003040    @0.@    DCD    1073754176
        0x000008ec:    c1200000    .. .    DCD    3240099840
        0x000008f0:    c2200000    .. .    DCD    3256877056
        0x000008f4:    2000003c    <..     DCD    536870972
    $t
    i.Custom2_Map_Control
    Custom2_Map_Control
        0x000008f8:    b510        ..      PUSH     {r4,lr}
        0x000008fa:    f000fb13    ....    BL       GetGameState ; 0xf24
        0x000008fe:    2804        .(      CMP      r0,#4
        0x00000900:    d10d        ..      BNE      0x91e ; Custom2_Map_Control + 38
        0x00000902:    4825        %H      LDR      r0,[pc,#148] ; [0x998] = 0x20000054
        0x00000904:    7800        .x      LDRB     r0,[r0,#0]
        0x00000906:    2800        .(      CMP      r0,#0
        0x00000908:    d109        ..      BNE      0x91e ; Custom2_Map_Control + 38
        0x0000090a:    4824        $H      LDR      r0,[pc,#144] ; [0x99c] = 0x149b0
        0x0000090c:    4924        $I      LDR      r1,[pc,#144] ; [0x9a0] = 0x20000058
        0x0000090e:    6008        .`      STR      r0,[r1,#0]
        0x00000910:    4608        .F      MOV      r0,r1
        0x00000912:    6800        .h      LDR      r0,[r0,#0]
        0x00000914:    f001fadc    ....    BL       SetSG90 ; 0x1ed0
        0x00000918:    2001        .       MOVS     r0,#1
        0x0000091a:    491f        .I      LDR      r1,[pc,#124] ; [0x998] = 0x20000054
        0x0000091c:    7008        .p      STRB     r0,[r1,#0]
        0x0000091e:    f000fb01    ....    BL       GetGameState ; 0xf24
        0x00000922:    2804        .(      CMP      r0,#4
        0x00000924:    d007        ..      BEQ      0x936 ; Custom2_Map_Control + 62
        0x00000926:    f000fafd    ....    BL       GetGameState ; 0xf24
        0x0000092a:    2810        .(      CMP      r0,#0x10
        0x0000092c:    d003        ..      BEQ      0x936 ; Custom2_Map_Control + 62
        0x0000092e:    f000faf9    ....    BL       GetGameState ; 0xf24
        0x00000932:    2840        @(      CMP      r0,#0x40
        0x00000934:    d11d        ..      BNE      0x972 ; Custom2_Map_Control + 122
        0x00000936:    481b        .H      LDR      r0,[pc,#108] ; [0x9a4] = 0x40003040
        0x00000938:    6b40        @k      LDR      r0,[r0,#0x34]
        0x0000093a:    2801        .(      CMP      r0,#1
        0x0000093c:    d114        ..      BNE      0x968 ; Custom2_Map_Control + 112
        0x0000093e:    4818        .H      LDR      r0,[pc,#96] ; [0x9a0] = 0x20000058
        0x00000940:    6800        .h      LDR      r0,[r0,#0]
        0x00000942:    4919        .I      LDR      r1,[pc,#100] ; [0x9a8] = 0x11814
        0x00000944:    4288        .B      CMP      r0,r1
        0x00000946:    d90a        ..      BLS      0x95e ; Custom2_Map_Control + 102
        0x00000948:    4815        .H      LDR      r0,[pc,#84] ; [0x9a0] = 0x20000058
        0x0000094a:    6800        .h      LDR      r0,[r0,#0]
        0x0000094c:    38ff        .8      SUBS     r0,r0,#0xff
        0x0000094e:    38f5        .8      SUBS     r0,r0,#0xf5
        0x00000950:    4913        .I      LDR      r1,[pc,#76] ; [0x9a0] = 0x20000058
        0x00000952:    6008        .`      STR      r0,[r1,#0]
        0x00000954:    4608        .F      MOV      r0,r1
        0x00000956:    6800        .h      LDR      r0,[r0,#0]
        0x00000958:    f001faba    ....    BL       SetSG90 ; 0x1ed0
        0x0000095c:    e01b        ..      B        0x996 ; Custom2_Map_Control + 158
        0x0000095e:    4810        .H      LDR      r0,[pc,#64] ; [0x9a0] = 0x20000058
        0x00000960:    6800        .h      LDR      r0,[r0,#0]
        0x00000962:    f001fab5    ....    BL       SetSG90 ; 0x1ed0
        0x00000966:    e016        ..      B        0x996 ; Custom2_Map_Control + 158
        0x00000968:    480d        .H      LDR      r0,[pc,#52] ; [0x9a0] = 0x20000058
        0x0000096a:    6800        .h      LDR      r0,[r0,#0]
        0x0000096c:    f001fab0    ....    BL       SetSG90 ; 0x1ed0
        0x00000970:    e011        ..      B        0x996 ; Custom2_Map_Control + 158
        0x00000972:    2000        .       MOVS     r0,#0
        0x00000974:    4908        .I      LDR      r1,[pc,#32] ; [0x998] = 0x20000054
        0x00000976:    7008        .p      STRB     r0,[r1,#0]
        0x00000978:    4809        .H      LDR      r0,[pc,#36] ; [0x9a0] = 0x20000058
        0x0000097a:    6800        .h      LDR      r0,[r0,#0]
        0x0000097c:    490b        .I      LDR      r1,[pc,#44] ; [0x9ac] = 0x16b48
        0x0000097e:    4288        .B      CMP      r0,r1
        0x00000980:    d205        ..      BCS      0x98e ; Custom2_Map_Control + 150
        0x00000982:    4807        .H      LDR      r0,[pc,#28] ; [0x9a0] = 0x20000058
        0x00000984:    6800        .h      LDR      r0,[r0,#0]
        0x00000986:    490a        .I      LDR      r1,[pc,#40] ; [0x9b0] = 0x1388
        0x00000988:    1840        @.      ADDS     r0,r0,r1
        0x0000098a:    4905        .I      LDR      r1,[pc,#20] ; [0x9a0] = 0x20000058
        0x0000098c:    6008        .`      STR      r0,[r1,#0]
        0x0000098e:    4804        .H      LDR      r0,[pc,#16] ; [0x9a0] = 0x20000058
        0x00000990:    6800        .h      LDR      r0,[r0,#0]
        0x00000992:    f001fa9d    ....    BL       SetSG90 ; 0x1ed0
        0x00000996:    bd10        ..      POP      {r4,pc}
    $d
        0x00000998:    20000054    T..     DCD    536870996
        0x0000099c:    000149b0    .I..    DCD    84400
        0x000009a0:    20000058    X..     DCD    536871000
        0x000009a4:    40003040    @0.@    DCD    1073754176
        0x000009a8:    00011814    ....    DCD    71700
        0x000009ac:    00016b48    Hk..    DCD    93000
        0x000009b0:    00001388    ....    DCD    5000
    $t
    i.EXITHandler0
    EXITHandler0
        0x000009b4:    b510        ..      PUSH     {r4,lr}
        0x000009b6:    f000fab5    ....    BL       GetGameState ; 0xf24
        0x000009ba:    2801        .(      CMP      r0,#1
        0x000009bc:    d104        ..      BNE      0x9c8 ; EXITHandler0 + 20
        0x000009be:    2000        .       MOVS     r0,#0
        0x000009c0:    f001fa74    ..t.    BL       SetGameMode ; 0x1eac
        0x000009c4:    f000fa36    ..6.    BL       Game_Start ; 0xe34
        0x000009c8:    bd10        ..      POP      {r4,pc}
    i.EXITHandler1
    EXITHandler1
        0x000009ca:    b510        ..      PUSH     {r4,lr}
        0x000009cc:    f000faaa    ....    BL       GetGameState ; 0xf24
        0x000009d0:    2801        .(      CMP      r0,#1
        0x000009d2:    d103        ..      BNE      0x9dc ; EXITHandler1 + 18
        0x000009d4:    f001fa6a    ..j.    BL       SetGameMode ; 0x1eac
        0x000009d8:    f000fa2c    ..,.    BL       Game_Start ; 0xe34
        0x000009dc:    bd10        ..      POP      {r4,pc}
    i.EXITHandler2
    EXITHandler2
        0x000009de:    b510        ..      PUSH     {r4,lr}
        0x000009e0:    f000faa0    ....    BL       GetGameState ; 0xf24
        0x000009e4:    2801        .(      CMP      r0,#1
        0x000009e6:    d105        ..      BNE      0x9f4 ; EXITHandler2 + 22
        0x000009e8:    2002        .       MOVS     r0,#2
        0x000009ea:    f001fa5f    .._.    BL       SetGameMode ; 0x1eac
        0x000009ee:    f000fa07    ....    BL       Game_Method ; 0xe00
        0x000009f2:    e008        ..      B        0xa06 ; EXITHandler2 + 40
        0x000009f4:    f000fa96    ....    BL       GetGameState ; 0xf24
        0x000009f8:    2810        .(      CMP      r0,#0x10
        0x000009fa:    d104        ..      BNE      0xa06 ; EXITHandler2 + 40
        0x000009fc:    2002        .       MOVS     r0,#2
        0x000009fe:    f001fa61    ..a.    BL       SetPauseMode ; 0x1ec4
        0x00000a02:    f000f9fd    ....    BL       Game_Method ; 0xe00
        0x00000a06:    bd10        ..      POP      {r4,pc}
    i.EXITHandler3
    EXITHandler3
        0x00000a08:    b510        ..      PUSH     {r4,lr}
        0x00000a0a:    f000fa05    ....    BL       Game_Restart ; 0xe18
        0x00000a0e:    bd10        ..      POP      {r4,pc}
    i.EXITHandler4
    EXITHandler4
        0x00000a10:    b510        ..      PUSH     {r4,lr}
        0x00000a12:    f000fa87    ....    BL       GetGameState ; 0xf24
        0x00000a16:    2802        .(      CMP      r0,#2
        0x00000a18:    d007        ..      BEQ      0xa2a ; EXITHandler4 + 26
        0x00000a1a:    f000fa83    ....    BL       GetGameState ; 0xf24
        0x00000a1e:    2804        .(      CMP      r0,#4
        0x00000a20:    d003        ..      BEQ      0xa2a ; EXITHandler4 + 26
        0x00000a22:    f000fa7f    ....    BL       GetGameState ; 0xf24
        0x00000a26:    2808        .(      CMP      r0,#8
        0x00000a28:    d101        ..      BNE      0xa2e ; EXITHandler4 + 30
        0x00000a2a:    f000f9ef    ....    BL       Game_Pause ; 0xe0c
        0x00000a2e:    bd10        ..      POP      {r4,pc}
    i.EXITHandler5
    EXITHandler5
        0x00000a30:    b510        ..      PUSH     {r4,lr}
        0x00000a32:    f000fa77    ..w.    BL       GetGameState ; 0xf24
        0x00000a36:    2810        .(      CMP      r0,#0x10
        0x00000a38:    d102        ..      BNE      0xa40 ; EXITHandler5 + 16
        0x00000a3a:    f000f9db    ....    BL       Game_Continue ; 0xdf4
        0x00000a3e:    e010        ..      B        0xa62 ; EXITHandler5 + 50
        0x00000a40:    f000fa70    ..p.    BL       GetGameState ; 0xf24
        0x00000a44:    2840        @(      CMP      r0,#0x40
        0x00000a46:    d106        ..      BNE      0xa56 ; EXITHandler5 + 38
        0x00000a48:    f000fa7e    ..~.    BL       GetPauseMode ; 0xf48
        0x00000a4c:    2802        .(      CMP      r0,#2
        0x00000a4e:    d102        ..      BNE      0xa56 ; EXITHandler5 + 38
        0x00000a50:    f000f9ca    ....    BL       Game_Cancle ; 0xde8
        0x00000a54:    e005        ..      B        0xa62 ; EXITHandler5 + 50
        0x00000a56:    f000fa65    ..e.    BL       GetGameState ; 0xf24
        0x00000a5a:    2840        @(      CMP      r0,#0x40
        0x00000a5c:    d101        ..      BNE      0xa62 ; EXITHandler5 + 50
        0x00000a5e:    f000f9db    ....    BL       Game_Restart ; 0xe18
        0x00000a62:    bd10        ..      POP      {r4,pc}
    i.EXITHandler6
    EXITHandler6
        0x00000a64:    b510        ..      PUSH     {r4,lr}
        0x00000a66:    f000fa5d    ..].    BL       GetGameState ; 0xf24
        0x00000a6a:    2808        .(      CMP      r0,#8
        0x00000a6c:    d101        ..      BNE      0xa72 ; EXITHandler6 + 14
        0x00000a6e:    f001fa6d    ..m.    BL       Third_Custom_Go ; 0x1f4c
        0x00000a72:    bd10        ..      POP      {r4,pc}
    i.EXITHandler7
    EXITHandler7
        0x00000a74:    b510        ..      PUSH     {r4,lr}
        0x00000a76:    2100        .!      MOVS     r1,#0
        0x00000a78:    2004        .       MOVS     r0,#4
        0x00000a7a:    f001fce1    ....    BL       mp3_send_cmd ; 0x2440
        0x00000a7e:    bd10        ..      POP      {r4,pc}
    i.EXITHandler8
    EXITHandler8
        0x00000a80:    b510        ..      PUSH     {r4,lr}
        0x00000a82:    2100        .!      MOVS     r1,#0
        0x00000a84:    2005        .       MOVS     r0,#5
        0x00000a86:    f001fcdb    ....    BL       mp3_send_cmd ; 0x2440
        0x00000a8a:    bd10        ..      POP      {r4,pc}
    i.EXITHandler9
    EXITHandler9
        0x00000a8c:    b510        ..      PUSH     {r4,lr}
        0x00000a8e:    2100        .!      MOVS     r1,#0
        0x00000a90:    2005        .       MOVS     r0,#5
        0x00000a92:    f001fcd5    ....    BL       mp3_send_cmd ; 0x2440
        0x00000a96:    bd10        ..      POP      {r4,pc}
    i.Fourth_Control
    Fourth_Control
        0x00000a98:    4811        .H      LDR      r0,[pc,#68] ; [0xae0] = 0x20000060
        0x00000a9a:    6800        .h      LDR      r0,[r0,#0]
        0x00000a9c:    2814        .(      CMP      r0,#0x14
        0x00000a9e:    da05        ..      BGE      0xaac ; Fourth_Control + 20
        0x00000aa0:    2001        .       MOVS     r0,#1
        0x00000aa2:    4910        .I      LDR      r1,[pc,#64] ; [0xae4] = 0x40003080
        0x00000aa4:    6048        H`      STR      r0,[r1,#4]
        0x00000aa6:    2000        .       MOVS     r0,#0
        0x00000aa8:    6088        .`      STR      r0,[r1,#8]
        0x00000aaa:    e00d        ..      B        0xac8 ; Fourth_Control + 48
        0x00000aac:    480c        .H      LDR      r0,[pc,#48] ; [0xae0] = 0x20000060
        0x00000aae:    6800        .h      LDR      r0,[r0,#0]
        0x00000ab0:    28c8        .(      CMP      r0,#0xc8
        0x00000ab2:    dd05        ..      BLE      0xac0 ; Fourth_Control + 40
        0x00000ab4:    2000        .       MOVS     r0,#0
        0x00000ab6:    490b        .I      LDR      r1,[pc,#44] ; [0xae4] = 0x40003080
        0x00000ab8:    6048        H`      STR      r0,[r1,#4]
        0x00000aba:    2001        .       MOVS     r0,#1
        0x00000abc:    6088        .`      STR      r0,[r1,#8]
        0x00000abe:    e003        ..      B        0xac8 ; Fourth_Control + 48
        0x00000ac0:    2000        .       MOVS     r0,#0
        0x00000ac2:    4908        .I      LDR      r1,[pc,#32] ; [0xae4] = 0x40003080
        0x00000ac4:    6048        H`      STR      r0,[r1,#4]
        0x00000ac6:    6088        .`      STR      r0,[r1,#8]
        0x00000ac8:    4807        .H      LDR      r0,[pc,#28] ; [0xae8] = 0x20000064
        0x00000aca:    6800        .h      LDR      r0,[r0,#0]
        0x00000acc:    2864        d(      CMP      r0,#0x64
        0x00000ace:    da03        ..      BGE      0xad8 ; Fourth_Control + 64
        0x00000ad0:    2001        .       MOVS     r0,#1
        0x00000ad2:    4904        .I      LDR      r1,[pc,#16] ; [0xae4] = 0x40003080
        0x00000ad4:    6008        .`      STR      r0,[r1,#0]
        0x00000ad6:    e002        ..      B        0xade ; Fourth_Control + 70
        0x00000ad8:    2000        .       MOVS     r0,#0
        0x00000ada:    4902        .I      LDR      r1,[pc,#8] ; [0xae4] = 0x40003080
        0x00000adc:    6008        .`      STR      r0,[r1,#0]
        0x00000ade:    4770        pG      BX       lr
    $d
        0x00000ae0:    20000060    `..     DCD    536871008
        0x00000ae4:    40003080    .0.@    DCD    1073754240
        0x00000ae8:    20000064    d..     DCD    536871012
    $t
    i.GPIO_ClrOutput
    GPIO_ClrOutput
        0x00000aec:    6842        Bh      LDR      r2,[r0,#4]
        0x00000aee:    438a        .C      BICS     r2,r2,r1
        0x00000af0:    6042        B`      STR      r2,[r0,#4]
        0x00000af2:    4770        pG      BX       lr
    i.GPIO_Init
    GPIO_Init
        0x00000af4:    6902        .i      LDR      r2,[r0,#0x10]
        0x00000af6:    680b        .h      LDR      r3,[r1,#0]
        0x00000af8:    431a        .C      ORRS     r2,r2,r3
        0x00000afa:    6102        .a      STR      r2,[r0,#0x10]
        0x00000afc:    6982        .i      LDR      r2,[r0,#0x18]
        0x00000afe:    684b        Kh      LDR      r3,[r1,#4]
        0x00000b00:    431a        .C      ORRS     r2,r2,r3
        0x00000b02:    6182        .a      STR      r2,[r0,#0x18]
        0x00000b04:    688a        .h      LDR      r2,[r1,#8]
        0x00000b06:    2a01        .*      CMP      r2,#1
        0x00000b08:    d01f        ..      BEQ      0xb4a ; GPIO_Init + 86
        0x00000b0a:    2a02        .*      CMP      r2,#2
        0x00000b0c:    d02a        *.      BEQ      0xb64 ; GPIO_Init + 112
        0x00000b0e:    2a03        .*      CMP      r2,#3
        0x00000b10:    d00e        ..      BEQ      0xb30 ; GPIO_Init + 60
        0x00000b12:    2a04        .*      CMP      r2,#4
        0x00000b14:    d133        3.      BNE      0xb7e ; GPIO_Init + 138
        0x00000b16:    6a02        .j      LDR      r2,[r0,#0x20]
        0x00000b18:    680b        .h      LDR      r3,[r1,#0]
        0x00000b1a:    431a        .C      ORRS     r2,r2,r3
        0x00000b1c:    6202        .b      STR      r2,[r0,#0x20]
        0x00000b1e:    6a82        .j      LDR      r2,[r0,#0x28]
        0x00000b20:    680b        .h      LDR      r3,[r1,#0]
        0x00000b22:    431a        .C      ORRS     r2,r2,r3
        0x00000b24:    6282        .b      STR      r2,[r0,#0x28]
        0x00000b26:    6b42        Bk      LDR      r2,[r0,#0x34]
        0x00000b28:    680b        .h      LDR      r3,[r1,#0]
        0x00000b2a:    431a        .C      ORRS     r2,r2,r3
        0x00000b2c:    6342        Bc      STR      r2,[r0,#0x34]
        0x00000b2e:    e026        &.      B        0xb7e ; GPIO_Init + 138
        0x00000b30:    6a02        .j      LDR      r2,[r0,#0x20]
        0x00000b32:    680b        .h      LDR      r3,[r1,#0]
        0x00000b34:    431a        .C      ORRS     r2,r2,r3
        0x00000b36:    6202        .b      STR      r2,[r0,#0x20]
        0x00000b38:    6a82        .j      LDR      r2,[r0,#0x28]
        0x00000b3a:    680b        .h      LDR      r3,[r1,#0]
        0x00000b3c:    431a        .C      ORRS     r2,r2,r3
        0x00000b3e:    6282        .b      STR      r2,[r0,#0x28]
        0x00000b40:    6b02        .k      LDR      r2,[r0,#0x30]
        0x00000b42:    680b        .h      LDR      r3,[r1,#0]
        0x00000b44:    431a        .C      ORRS     r2,r2,r3
        0x00000b46:    6302        .c      STR      r2,[r0,#0x30]
        0x00000b48:    e019        ..      B        0xb7e ; GPIO_Init + 138
        0x00000b4a:    6a02        .j      LDR      r2,[r0,#0x20]
        0x00000b4c:    680b        .h      LDR      r3,[r1,#0]
        0x00000b4e:    431a        .C      ORRS     r2,r2,r3
        0x00000b50:    6202        .b      STR      r2,[r0,#0x20]
        0x00000b52:    6ac2        .j      LDR      r2,[r0,#0x2c]
        0x00000b54:    680b        .h      LDR      r3,[r1,#0]
        0x00000b56:    431a        .C      ORRS     r2,r2,r3
        0x00000b58:    62c2        .b      STR      r2,[r0,#0x2c]
        0x00000b5a:    6b02        .k      LDR      r2,[r0,#0x30]
        0x00000b5c:    680b        .h      LDR      r3,[r1,#0]
        0x00000b5e:    431a        .C      ORRS     r2,r2,r3
        0x00000b60:    6302        .c      STR      r2,[r0,#0x30]
        0x00000b62:    e00c        ..      B        0xb7e ; GPIO_Init + 138
        0x00000b64:    6a02        .j      LDR      r2,[r0,#0x20]
        0x00000b66:    680b        .h      LDR      r3,[r1,#0]
        0x00000b68:    431a        .C      ORRS     r2,r2,r3
        0x00000b6a:    6202        .b      STR      r2,[r0,#0x20]
        0x00000b6c:    6ac2        .j      LDR      r2,[r0,#0x2c]
        0x00000b6e:    680b        .h      LDR      r3,[r1,#0]
        0x00000b70:    431a        .C      ORRS     r2,r2,r3
        0x00000b72:    62c2        .b      STR      r2,[r0,#0x2c]
        0x00000b74:    6b42        Bk      LDR      r2,[r0,#0x34]
        0x00000b76:    680b        .h      LDR      r3,[r1,#0]
        0x00000b78:    431a        .C      ORRS     r2,r2,r3
        0x00000b7a:    6342        Bc      STR      r2,[r0,#0x34]
        0x00000b7c:    bf00        ..      NOP      
        0x00000b7e:    bf00        ..      NOP      
        0x00000b80:    4770        pG      BX       lr
    i.GPIO_SetOutput
    GPIO_SetOutput
        0x00000b82:    6842        Bh      LDR      r2,[r0,#4]
        0x00000b84:    430a        .C      ORRS     r2,r2,r1
        0x00000b86:    6042        B`      STR      r2,[r0,#4]
        0x00000b88:    4770        pG      BX       lr
        0x00000b8a:    0000        ..      MOVS     r0,r0
    i.GameBgm
    GameBgm
        0x00000b8c:    b510        ..      PUSH     {r4,lr}
        0x00000b8e:    4888        .H      LDR      r0,[pc,#544] ; [0xdb0] = 0x40003040
        0x00000b90:    6b00        .k      LDR      r0,[r0,#0x30]
        0x00000b92:    2801        .(      CMP      r0,#1
        0x00000b94:    d11d        ..      BNE      0xbd2 ; GameBgm + 70
        0x00000b96:    f000f9c5    ....    BL       GetGameState ; 0xf24
        0x00000b9a:    2801        .(      CMP      r0,#1
        0x00000b9c:    d11a        ..      BNE      0xbd4 ; GameBgm + 72
        0x00000b9e:    4885        .H      LDR      r0,[pc,#532] ; [0xdb4] = 0x2000002c
        0x00000ba0:    7800        .x      LDRB     r0,[r0,#0]
        0x00000ba2:    2800        .(      CMP      r0,#0
        0x00000ba4:    d1f6        ..      BNE      0xb94 ; GameBgm + 8
        0x00000ba6:    2001        .       MOVS     r0,#1
        0x00000ba8:    4982        .I      LDR      r1,[pc,#520] ; [0xdb4] = 0x2000002c
        0x00000baa:    7008        .p      STRB     r0,[r1,#0]
        0x00000bac:    2000        .       MOVS     r0,#0
        0x00000bae:    4982        .I      LDR      r1,[pc,#520] ; [0xdb8] = 0x2000002d
        0x00000bb0:    7008        .p      STRB     r0,[r1,#0]
        0x00000bb2:    4982        .I      LDR      r1,[pc,#520] ; [0xdbc] = 0x2000002e
        0x00000bb4:    7008        .p      STRB     r0,[r1,#0]
        0x00000bb6:    4982        .I      LDR      r1,[pc,#520] ; [0xdc0] = 0x2000002f
        0x00000bb8:    7008        .p      STRB     r0,[r1,#0]
        0x00000bba:    4982        .I      LDR      r1,[pc,#520] ; [0xdc4] = 0x20000030
        0x00000bbc:    7008        .p      STRB     r0,[r1,#0]
        0x00000bbe:    4982        .I      LDR      r1,[pc,#520] ; [0xdc8] = 0x20000031
        0x00000bc0:    7008        .p      STRB     r0,[r1,#0]
        0x00000bc2:    4982        .I      LDR      r1,[pc,#520] ; [0xdcc] = 0x20000032
        0x00000bc4:    7008        .p      STRB     r0,[r1,#0]
        0x00000bc6:    4982        .I      LDR      r1,[pc,#520] ; [0xdd0] = 0x20000033
        0x00000bc8:    7008        .p      STRB     r0,[r1,#0]
        0x00000bca:    2101        .!      MOVS     r1,#1
        0x00000bcc:    2008        .       MOVS     r0,#8
        0x00000bce:    f001fc37    ..7.    BL       mp3_send_cmd ; 0x2440
        0x00000bd2:    e0ec        ..      B        0xdae ; GameBgm + 546
        0x00000bd4:    f000f9a6    ....    BL       GetGameState ; 0xf24
        0x00000bd8:    2802        .(      CMP      r0,#2
        0x00000bda:    d11a        ..      BNE      0xc12 ; GameBgm + 134
        0x00000bdc:    4876        vH      LDR      r0,[pc,#472] ; [0xdb8] = 0x2000002d
        0x00000bde:    7800        .x      LDRB     r0,[r0,#0]
        0x00000be0:    2800        .(      CMP      r0,#0
        0x00000be2:    d1f6        ..      BNE      0xbd2 ; GameBgm + 70
        0x00000be4:    4973        sI      LDR      r1,[pc,#460] ; [0xdb4] = 0x2000002c
        0x00000be6:    7008        .p      STRB     r0,[r1,#0]
        0x00000be8:    2001        .       MOVS     r0,#1
        0x00000bea:    4973        sI      LDR      r1,[pc,#460] ; [0xdb8] = 0x2000002d
        0x00000bec:    7008        .p      STRB     r0,[r1,#0]
        0x00000bee:    2000        .       MOVS     r0,#0
        0x00000bf0:    4972        rI      LDR      r1,[pc,#456] ; [0xdbc] = 0x2000002e
        0x00000bf2:    7008        .p      STRB     r0,[r1,#0]
        0x00000bf4:    4972        rI      LDR      r1,[pc,#456] ; [0xdc0] = 0x2000002f
        0x00000bf6:    7008        .p      STRB     r0,[r1,#0]
        0x00000bf8:    4972        rI      LDR      r1,[pc,#456] ; [0xdc4] = 0x20000030
        0x00000bfa:    7008        .p      STRB     r0,[r1,#0]
        0x00000bfc:    4972        rI      LDR      r1,[pc,#456] ; [0xdc8] = 0x20000031
        0x00000bfe:    7008        .p      STRB     r0,[r1,#0]
        0x00000c00:    4972        rI      LDR      r1,[pc,#456] ; [0xdcc] = 0x20000032
        0x00000c02:    7008        .p      STRB     r0,[r1,#0]
        0x00000c04:    4972        rI      LDR      r1,[pc,#456] ; [0xdd0] = 0x20000033
        0x00000c06:    7008        .p      STRB     r0,[r1,#0]
        0x00000c08:    2102        .!      MOVS     r1,#2
        0x00000c0a:    2008        .       MOVS     r0,#8
        0x00000c0c:    f001fc18    ....    BL       mp3_send_cmd ; 0x2440
        0x00000c10:    e0cd        ..      B        0xdae ; GameBgm + 546
        0x00000c12:    f000f987    ....    BL       GetGameState ; 0xf24
        0x00000c16:    2804        .(      CMP      r0,#4
        0x00000c18:    d11a        ..      BNE      0xc50 ; GameBgm + 196
        0x00000c1a:    4868        hH      LDR      r0,[pc,#416] ; [0xdbc] = 0x2000002e
        0x00000c1c:    7800        .x      LDRB     r0,[r0,#0]
        0x00000c1e:    2800        .(      CMP      r0,#0
        0x00000c20:    d1d7        ..      BNE      0xbd2 ; GameBgm + 70
        0x00000c22:    4964        dI      LDR      r1,[pc,#400] ; [0xdb4] = 0x2000002c
        0x00000c24:    7008        .p      STRB     r0,[r1,#0]
        0x00000c26:    4964        dI      LDR      r1,[pc,#400] ; [0xdb8] = 0x2000002d
        0x00000c28:    7008        .p      STRB     r0,[r1,#0]
        0x00000c2a:    2001        .       MOVS     r0,#1
        0x00000c2c:    4963        cI      LDR      r1,[pc,#396] ; [0xdbc] = 0x2000002e
        0x00000c2e:    7008        .p      STRB     r0,[r1,#0]
        0x00000c30:    2000        .       MOVS     r0,#0
        0x00000c32:    4963        cI      LDR      r1,[pc,#396] ; [0xdc0] = 0x2000002f
        0x00000c34:    7008        .p      STRB     r0,[r1,#0]
        0x00000c36:    4963        cI      LDR      r1,[pc,#396] ; [0xdc4] = 0x20000030
        0x00000c38:    7008        .p      STRB     r0,[r1,#0]
        0x00000c3a:    4963        cI      LDR      r1,[pc,#396] ; [0xdc8] = 0x20000031
        0x00000c3c:    7008        .p      STRB     r0,[r1,#0]
        0x00000c3e:    4963        cI      LDR      r1,[pc,#396] ; [0xdcc] = 0x20000032
        0x00000c40:    7008        .p      STRB     r0,[r1,#0]
        0x00000c42:    4963        cI      LDR      r1,[pc,#396] ; [0xdd0] = 0x20000033
        0x00000c44:    7008        .p      STRB     r0,[r1,#0]
        0x00000c46:    2103        .!      MOVS     r1,#3
        0x00000c48:    2008        .       MOVS     r0,#8
        0x00000c4a:    f001fbf9    ....    BL       mp3_send_cmd ; 0x2440
        0x00000c4e:    e0ae        ..      B        0xdae ; GameBgm + 546
        0x00000c50:    f000f968    ..h.    BL       GetGameState ; 0xf24
        0x00000c54:    2808        .(      CMP      r0,#8
        0x00000c56:    d11a        ..      BNE      0xc8e ; GameBgm + 258
        0x00000c58:    4859        YH      LDR      r0,[pc,#356] ; [0xdc0] = 0x2000002f
        0x00000c5a:    7800        .x      LDRB     r0,[r0,#0]
        0x00000c5c:    2800        .(      CMP      r0,#0
        0x00000c5e:    d1b8        ..      BNE      0xbd2 ; GameBgm + 70
        0x00000c60:    4954        TI      LDR      r1,[pc,#336] ; [0xdb4] = 0x2000002c
        0x00000c62:    7008        .p      STRB     r0,[r1,#0]
        0x00000c64:    4954        TI      LDR      r1,[pc,#336] ; [0xdb8] = 0x2000002d
        0x00000c66:    7008        .p      STRB     r0,[r1,#0]
        0x00000c68:    4954        TI      LDR      r1,[pc,#336] ; [0xdbc] = 0x2000002e
        0x00000c6a:    7008        .p      STRB     r0,[r1,#0]
        0x00000c6c:    2001        .       MOVS     r0,#1
        0x00000c6e:    4954        TI      LDR      r1,[pc,#336] ; [0xdc0] = 0x2000002f
        0x00000c70:    7008        .p      STRB     r0,[r1,#0]
        0x00000c72:    2000        .       MOVS     r0,#0
        0x00000c74:    4953        SI      LDR      r1,[pc,#332] ; [0xdc4] = 0x20000030
        0x00000c76:    7008        .p      STRB     r0,[r1,#0]
        0x00000c78:    4953        SI      LDR      r1,[pc,#332] ; [0xdc8] = 0x20000031
        0x00000c7a:    7008        .p      STRB     r0,[r1,#0]
        0x00000c7c:    4953        SI      LDR      r1,[pc,#332] ; [0xdcc] = 0x20000032
        0x00000c7e:    7008        .p      STRB     r0,[r1,#0]
        0x00000c80:    4953        SI      LDR      r1,[pc,#332] ; [0xdd0] = 0x20000033
        0x00000c82:    7008        .p      STRB     r0,[r1,#0]
        0x00000c84:    2104        .!      MOVS     r1,#4
        0x00000c86:    2008        .       MOVS     r0,#8
        0x00000c88:    f001fbda    ....    BL       mp3_send_cmd ; 0x2440
        0x00000c8c:    e08f        ..      B        0xdae ; GameBgm + 546
        0x00000c8e:    f000f949    ..I.    BL       GetGameState ; 0xf24
        0x00000c92:    2820         (      CMP      r0,#0x20
        0x00000c94:    d11a        ..      BNE      0xccc ; GameBgm + 320
        0x00000c96:    484b        KH      LDR      r0,[pc,#300] ; [0xdc4] = 0x20000030
        0x00000c98:    7800        .x      LDRB     r0,[r0,#0]
        0x00000c9a:    2800        .(      CMP      r0,#0
        0x00000c9c:    d199        ..      BNE      0xbd2 ; GameBgm + 70
        0x00000c9e:    4945        EI      LDR      r1,[pc,#276] ; [0xdb4] = 0x2000002c
        0x00000ca0:    7008        .p      STRB     r0,[r1,#0]
        0x00000ca2:    4945        EI      LDR      r1,[pc,#276] ; [0xdb8] = 0x2000002d
        0x00000ca4:    7008        .p      STRB     r0,[r1,#0]
        0x00000ca6:    4945        EI      LDR      r1,[pc,#276] ; [0xdbc] = 0x2000002e
        0x00000ca8:    7008        .p      STRB     r0,[r1,#0]
        0x00000caa:    4945        EI      LDR      r1,[pc,#276] ; [0xdc0] = 0x2000002f
        0x00000cac:    7008        .p      STRB     r0,[r1,#0]
        0x00000cae:    2001        .       MOVS     r0,#1
        0x00000cb0:    4944        DI      LDR      r1,[pc,#272] ; [0xdc4] = 0x20000030
        0x00000cb2:    7008        .p      STRB     r0,[r1,#0]
        0x00000cb4:    2000        .       MOVS     r0,#0
        0x00000cb6:    4944        DI      LDR      r1,[pc,#272] ; [0xdc8] = 0x20000031
        0x00000cb8:    7008        .p      STRB     r0,[r1,#0]
        0x00000cba:    4944        DI      LDR      r1,[pc,#272] ; [0xdcc] = 0x20000032
        0x00000cbc:    7008        .p      STRB     r0,[r1,#0]
        0x00000cbe:    4944        DI      LDR      r1,[pc,#272] ; [0xdd0] = 0x20000033
        0x00000cc0:    7008        .p      STRB     r0,[r1,#0]
        0x00000cc2:    2105        .!      MOVS     r1,#5
        0x00000cc4:    2008        .       MOVS     r0,#8
        0x00000cc6:    f001fbbb    ....    BL       mp3_send_cmd ; 0x2440
        0x00000cca:    e070        p.      B        0xdae ; GameBgm + 546
        0x00000ccc:    f000f92a    ..*.    BL       GetGameState ; 0xf24
        0x00000cd0:    2840        @(      CMP      r0,#0x40
        0x00000cd2:    d11a        ..      BNE      0xd0a ; GameBgm + 382
        0x00000cd4:    483c        <H      LDR      r0,[pc,#240] ; [0xdc8] = 0x20000031
        0x00000cd6:    7800        .x      LDRB     r0,[r0,#0]
        0x00000cd8:    2800        .(      CMP      r0,#0
        0x00000cda:    d168        h.      BNE      0xdae ; GameBgm + 546
        0x00000cdc:    4935        5I      LDR      r1,[pc,#212] ; [0xdb4] = 0x2000002c
        0x00000cde:    7008        .p      STRB     r0,[r1,#0]
        0x00000ce0:    4935        5I      LDR      r1,[pc,#212] ; [0xdb8] = 0x2000002d
        0x00000ce2:    7008        .p      STRB     r0,[r1,#0]
        0x00000ce4:    4935        5I      LDR      r1,[pc,#212] ; [0xdbc] = 0x2000002e
        0x00000ce6:    7008        .p      STRB     r0,[r1,#0]
        0x00000ce8:    4935        5I      LDR      r1,[pc,#212] ; [0xdc0] = 0x2000002f
        0x00000cea:    7008        .p      STRB     r0,[r1,#0]
        0x00000cec:    4935        5I      LDR      r1,[pc,#212] ; [0xdc4] = 0x20000030
        0x00000cee:    7008        .p      STRB     r0,[r1,#0]
        0x00000cf0:    2001        .       MOVS     r0,#1
        0x00000cf2:    4935        5I      LDR      r1,[pc,#212] ; [0xdc8] = 0x20000031
        0x00000cf4:    7008        .p      STRB     r0,[r1,#0]
        0x00000cf6:    2000        .       MOVS     r0,#0
        0x00000cf8:    4934        4I      LDR      r1,[pc,#208] ; [0xdcc] = 0x20000032
        0x00000cfa:    7008        .p      STRB     r0,[r1,#0]
        0x00000cfc:    4934        4I      LDR      r1,[pc,#208] ; [0xdd0] = 0x20000033
        0x00000cfe:    7008        .p      STRB     r0,[r1,#0]
        0x00000d00:    2106        .!      MOVS     r1,#6
        0x00000d02:    2008        .       MOVS     r0,#8
        0x00000d04:    f001fb9c    ....    BL       mp3_send_cmd ; 0x2440
        0x00000d08:    e051        Q.      B        0xdae ; GameBgm + 546
        0x00000d0a:    f000f90b    ....    BL       GetGameState ; 0xf24
        0x00000d0e:    2810        .(      CMP      r0,#0x10
        0x00000d10:    d11a        ..      BNE      0xd48 ; GameBgm + 444
        0x00000d12:    482e        .H      LDR      r0,[pc,#184] ; [0xdcc] = 0x20000032
        0x00000d14:    7800        .x      LDRB     r0,[r0,#0]
        0x00000d16:    2800        .(      CMP      r0,#0
        0x00000d18:    d149        I.      BNE      0xdae ; GameBgm + 546
        0x00000d1a:    4926        &I      LDR      r1,[pc,#152] ; [0xdb4] = 0x2000002c
        0x00000d1c:    7008        .p      STRB     r0,[r1,#0]
        0x00000d1e:    4926        &I      LDR      r1,[pc,#152] ; [0xdb8] = 0x2000002d
        0x00000d20:    7008        .p      STRB     r0,[r1,#0]
        0x00000d22:    4926        &I      LDR      r1,[pc,#152] ; [0xdbc] = 0x2000002e
        0x00000d24:    7008        .p      STRB     r0,[r1,#0]
        0x00000d26:    4926        &I      LDR      r1,[pc,#152] ; [0xdc0] = 0x2000002f
        0x00000d28:    7008        .p      STRB     r0,[r1,#0]
        0x00000d2a:    4926        &I      LDR      r1,[pc,#152] ; [0xdc4] = 0x20000030
        0x00000d2c:    7008        .p      STRB     r0,[r1,#0]
        0x00000d2e:    4926        &I      LDR      r1,[pc,#152] ; [0xdc8] = 0x20000031
        0x00000d30:    7008        .p      STRB     r0,[r1,#0]
        0x00000d32:    2001        .       MOVS     r0,#1
        0x00000d34:    4925        %I      LDR      r1,[pc,#148] ; [0xdcc] = 0x20000032
        0x00000d36:    7008        .p      STRB     r0,[r1,#0]
        0x00000d38:    2000        .       MOVS     r0,#0
        0x00000d3a:    4925        %I      LDR      r1,[pc,#148] ; [0xdd0] = 0x20000033
        0x00000d3c:    7008        .p      STRB     r0,[r1,#0]
        0x00000d3e:    2107        .!      MOVS     r1,#7
        0x00000d40:    2008        .       MOVS     r0,#8
        0x00000d42:    f001fb7d    ..}.    BL       mp3_send_cmd ; 0x2440
        0x00000d46:    e032        2.      B        0xdae ; GameBgm + 546
        0x00000d48:    f000f8ec    ....    BL       GetGameState ; 0xf24
        0x00000d4c:    287f        .(      CMP      r0,#0x7f
        0x00000d4e:    d119        ..      BNE      0xd84 ; GameBgm + 504
        0x00000d50:    481f        .H      LDR      r0,[pc,#124] ; [0xdd0] = 0x20000033
        0x00000d52:    7800        .x      LDRB     r0,[r0,#0]
        0x00000d54:    2800        .(      CMP      r0,#0
        0x00000d56:    d12a        *.      BNE      0xdae ; GameBgm + 546
        0x00000d58:    4916        .I      LDR      r1,[pc,#88] ; [0xdb4] = 0x2000002c
        0x00000d5a:    7008        .p      STRB     r0,[r1,#0]
        0x00000d5c:    4916        .I      LDR      r1,[pc,#88] ; [0xdb8] = 0x2000002d
        0x00000d5e:    7008        .p      STRB     r0,[r1,#0]
        0x00000d60:    4916        .I      LDR      r1,[pc,#88] ; [0xdbc] = 0x2000002e
        0x00000d62:    7008        .p      STRB     r0,[r1,#0]
        0x00000d64:    4916        .I      LDR      r1,[pc,#88] ; [0xdc0] = 0x2000002f
        0x00000d66:    7008        .p      STRB     r0,[r1,#0]
        0x00000d68:    4916        .I      LDR      r1,[pc,#88] ; [0xdc4] = 0x20000030
        0x00000d6a:    7008        .p      STRB     r0,[r1,#0]
        0x00000d6c:    4916        .I      LDR      r1,[pc,#88] ; [0xdc8] = 0x20000031
        0x00000d6e:    7008        .p      STRB     r0,[r1,#0]
        0x00000d70:    4916        .I      LDR      r1,[pc,#88] ; [0xdcc] = 0x20000032
        0x00000d72:    7008        .p      STRB     r0,[r1,#0]
        0x00000d74:    2001        .       MOVS     r0,#1
        0x00000d76:    4916        .I      LDR      r1,[pc,#88] ; [0xdd0] = 0x20000033
        0x00000d78:    7008        .p      STRB     r0,[r1,#0]
        0x00000d7a:    2108        .!      MOVS     r1,#8
        0x00000d7c:    4608        .F      MOV      r0,r1
        0x00000d7e:    f001fb5f    .._.    BL       mp3_send_cmd ; 0x2440
        0x00000d82:    e014        ..      B        0xdae ; GameBgm + 546
        0x00000d84:    2000        .       MOVS     r0,#0
        0x00000d86:    490b        .I      LDR      r1,[pc,#44] ; [0xdb4] = 0x2000002c
        0x00000d88:    7008        .p      STRB     r0,[r1,#0]
        0x00000d8a:    490b        .I      LDR      r1,[pc,#44] ; [0xdb8] = 0x2000002d
        0x00000d8c:    7008        .p      STRB     r0,[r1,#0]
        0x00000d8e:    490b        .I      LDR      r1,[pc,#44] ; [0xdbc] = 0x2000002e
        0x00000d90:    7008        .p      STRB     r0,[r1,#0]
        0x00000d92:    490b        .I      LDR      r1,[pc,#44] ; [0xdc0] = 0x2000002f
        0x00000d94:    7008        .p      STRB     r0,[r1,#0]
        0x00000d96:    490b        .I      LDR      r1,[pc,#44] ; [0xdc4] = 0x20000030
        0x00000d98:    7008        .p      STRB     r0,[r1,#0]
        0x00000d9a:    490b        .I      LDR      r1,[pc,#44] ; [0xdc8] = 0x20000031
        0x00000d9c:    7008        .p      STRB     r0,[r1,#0]
        0x00000d9e:    490b        .I      LDR      r1,[pc,#44] ; [0xdcc] = 0x20000032
        0x00000da0:    7008        .p      STRB     r0,[r1,#0]
        0x00000da2:    490b        .I      LDR      r1,[pc,#44] ; [0xdd0] = 0x20000033
        0x00000da4:    7008        .p      STRB     r0,[r1,#0]
        0x00000da6:    2100        .!      MOVS     r1,#0
        0x00000da8:    2016        .       MOVS     r0,#0x16
        0x00000daa:    f001fb49    ..I.    BL       mp3_send_cmd ; 0x2440
        0x00000dae:    bd10        ..      POP      {r4,pc}
    $d
        0x00000db0:    40003040    @0.@    DCD    1073754176
        0x00000db4:    2000002c    ,..     DCD    536870956
        0x00000db8:    2000002d    -..     DCD    536870957
        0x00000dbc:    2000002e    ...     DCD    536870958
        0x00000dc0:    2000002f    /..     DCD    536870959
        0x00000dc4:    20000030    0..     DCD    536870960
        0x00000dc8:    20000031    1..     DCD    536870961
        0x00000dcc:    20000032    2..     DCD    536870962
        0x00000dd0:    20000033    3..     DCD    536870963
    $t
    i.GameInit
    GameInit
        0x00000dd4:    4802        .H      LDR      r0,[pc,#8] ; [0xde0] = 0x20000078
        0x00000dd6:    6800        .h      LDR      r0,[r0,#0]
        0x00000dd8:    4902        .I      LDR      r1,[pc,#8] ; [0xde4] = 0x40003040
        0x00000dda:    6148        Ha      STR      r0,[r1,#0x14]
        0x00000ddc:    4770        pG      BX       lr
    $d
        0x00000dde:    0000        ..      DCW    0
        0x00000de0:    20000078    x..     DCD    536871032
        0x00000de4:    40003040    @0.@    DCD    1073754176
    $t
    i.Game_Cancle
    Game_Cancle
        0x00000de8:    2001        .       MOVS     r0,#1
        0x00000dea:    4901        .I      LDR      r1,[pc,#4] ; [0xdf0] = 0x40003000
        0x00000dec:    6188        .a      STR      r0,[r1,#0x18]
        0x00000dee:    4770        pG      BX       lr
    $d
        0x00000df0:    40003000    .0.@    DCD    1073754112
    $t
    i.Game_Continue
    Game_Continue
        0x00000df4:    2001        .       MOVS     r0,#1
        0x00000df6:    4901        .I      LDR      r1,[pc,#4] ; [0xdfc] = 0x40003000
        0x00000df8:    60c8        .`      STR      r0,[r1,#0xc]
        0x00000dfa:    4770        pG      BX       lr
    $d
        0x00000dfc:    40003000    .0.@    DCD    1073754112
    $t
    i.Game_Method
    Game_Method
        0x00000e00:    2001        .       MOVS     r0,#1
        0x00000e02:    4901        .I      LDR      r1,[pc,#4] ; [0xe08] = 0x40003000
        0x00000e04:    6148        Ha      STR      r0,[r1,#0x14]
        0x00000e06:    4770        pG      BX       lr
    $d
        0x00000e08:    40003000    .0.@    DCD    1073754112
    $t
    i.Game_Pause
    Game_Pause
        0x00000e0c:    2001        .       MOVS     r0,#1
        0x00000e0e:    4901        .I      LDR      r1,[pc,#4] ; [0xe14] = 0x40003000
        0x00000e10:    6088        .`      STR      r0,[r1,#8]
        0x00000e12:    4770        pG      BX       lr
    $d
        0x00000e14:    40003000    .0.@    DCD    1073754112
    $t
    i.Game_Restart
    Game_Restart
        0x00000e18:    b500        ..      PUSH     {lr}
        0x00000e1a:    2000        .       MOVS     r0,#0
        0x00000e1c:    f001f846    ..F.    BL       SetGameMode ; 0x1eac
        0x00000e20:    2000        .       MOVS     r0,#0
        0x00000e22:    f001f84f    ..O.    BL       SetPauseMode ; 0x1ec4
        0x00000e26:    2001        .       MOVS     r0,#1
        0x00000e28:    4901        .I      LDR      r1,[pc,#4] ; [0xe30] = 0x40003000
        0x00000e2a:    6108        .a      STR      r0,[r1,#0x10]
        0x00000e2c:    bd00        ..      POP      {pc}
    $d
        0x00000e2e:    0000        ..      DCW    0
        0x00000e30:    40003000    .0.@    DCD    1073754112
    $t
    i.Game_Start
    Game_Start
        0x00000e34:    2001        .       MOVS     r0,#1
        0x00000e36:    4901        .I      LDR      r1,[pc,#4] ; [0xe3c] = 0x40003000
        0x00000e38:    6008        .`      STR      r0,[r1,#0]
        0x00000e3a:    4770        pG      BX       lr
    $d
        0x00000e3c:    40003000    .0.@    DCD    1073754112
    $t
    i.GetAngle
    GetAngle
        0x00000e40:    b510        ..      PUSH     {r4,lr}
        0x00000e42:    f000f86f    ..o.    BL       GetGameState ; 0xf24
        0x00000e46:    2808        .(      CMP      r0,#8
        0x00000e48:    d157        W.      BNE      0xefa ; GetAngle + 186
        0x00000e4a:    f000f889    ....    BL       GetUpDownState ; 0xf60
        0x00000e4e:    2801        .(      CMP      r0,#1
        0x00000e50:    d112        ..      BNE      0xe78 ; GetAngle + 56
        0x00000e52:    f000f873    ..s.    BL       GetLeftRightState ; 0xf3c
        0x00000e56:    2802        .(      CMP      r0,#2
        0x00000e58:    d10e        ..      BNE      0xe78 ; GetAngle + 56
        0x00000e5a:    f000f87b    ..{.    BL       GetRightFirstCnt ; 0xf54
        0x00000e5e:    4601        .F      MOV      r1,r0
        0x00000e60:    f000f884    ....    BL       GetUpFirstCnt ; 0xf6c
        0x00000e64:    4281        .B      CMP      r1,r0
        0x00000e66:    d903        ..      BLS      0xe70 ; GetAngle + 48
        0x00000e68:    2001        .       MOVS     r0,#1
        0x00000e6a:    4926        &I      LDR      r1,[pc,#152] ; [0xf04] = 0x2000004b
        0x00000e6c:    7008        .p      STRB     r0,[r1,#0]
        0x00000e6e:    e03f        ?.      B        0xef0 ; GetAngle + 176
        0x00000e70:    2002        .       MOVS     r0,#2
        0x00000e72:    4924        $I      LDR      r1,[pc,#144] ; [0xf04] = 0x2000004b
        0x00000e74:    7008        .p      STRB     r0,[r1,#0]
        0x00000e76:    e03b        ;.      B        0xef0 ; GetAngle + 176
        0x00000e78:    f000f872    ..r.    BL       GetUpDownState ; 0xf60
        0x00000e7c:    2801        .(      CMP      r0,#1
        0x00000e7e:    d112        ..      BNE      0xea6 ; GetAngle + 102
        0x00000e80:    f000f85c    ..\.    BL       GetLeftRightState ; 0xf3c
        0x00000e84:    2801        .(      CMP      r0,#1
        0x00000e86:    d10e        ..      BNE      0xea6 ; GetAngle + 102
        0x00000e88:    f000f870    ..p.    BL       GetUpFirstCnt ; 0xf6c
        0x00000e8c:    4601        .F      MOV      r1,r0
        0x00000e8e:    f000f84f    ..O.    BL       GetLeftFirstCnt ; 0xf30
        0x00000e92:    4281        .B      CMP      r1,r0
        0x00000e94:    d903        ..      BLS      0xe9e ; GetAngle + 94
        0x00000e96:    2003        .       MOVS     r0,#3
        0x00000e98:    491a        .I      LDR      r1,[pc,#104] ; [0xf04] = 0x2000004b
        0x00000e9a:    7008        .p      STRB     r0,[r1,#0]
        0x00000e9c:    e028        (.      B        0xef0 ; GetAngle + 176
        0x00000e9e:    2004        .       MOVS     r0,#4
        0x00000ea0:    4918        .I      LDR      r1,[pc,#96] ; [0xf04] = 0x2000004b
        0x00000ea2:    7008        .p      STRB     r0,[r1,#0]
        0x00000ea4:    e024        $.      B        0xef0 ; GetAngle + 176
        0x00000ea6:    f000f85b    ..[.    BL       GetUpDownState ; 0xf60
        0x00000eaa:    2802        .(      CMP      r0,#2
        0x00000eac:    d112        ..      BNE      0xed4 ; GetAngle + 148
        0x00000eae:    f000f845    ..E.    BL       GetLeftRightState ; 0xf3c
        0x00000eb2:    2801        .(      CMP      r0,#1
        0x00000eb4:    d10e        ..      BNE      0xed4 ; GetAngle + 148
        0x00000eb6:    f000f83b    ..;.    BL       GetLeftFirstCnt ; 0xf30
        0x00000eba:    4601        .F      MOV      r1,r0
        0x00000ebc:    f000f826    ..&.    BL       GetDownFirstCnt ; 0xf0c
        0x00000ec0:    4281        .B      CMP      r1,r0
        0x00000ec2:    d903        ..      BLS      0xecc ; GetAngle + 140
        0x00000ec4:    2005        .       MOVS     r0,#5
        0x00000ec6:    490f        .I      LDR      r1,[pc,#60] ; [0xf04] = 0x2000004b
        0x00000ec8:    7008        .p      STRB     r0,[r1,#0]
        0x00000eca:    e011        ..      B        0xef0 ; GetAngle + 176
        0x00000ecc:    2006        .       MOVS     r0,#6
        0x00000ece:    490d        .I      LDR      r1,[pc,#52] ; [0xf04] = 0x2000004b
        0x00000ed0:    7008        .p      STRB     r0,[r1,#0]
        0x00000ed2:    e00d        ..      B        0xef0 ; GetAngle + 176
        0x00000ed4:    f000f81a    ....    BL       GetDownFirstCnt ; 0xf0c
        0x00000ed8:    4601        .F      MOV      r1,r0
        0x00000eda:    f000f83b    ..;.    BL       GetRightFirstCnt ; 0xf54
        0x00000ede:    4281        .B      CMP      r1,r0
        0x00000ee0:    d903        ..      BLS      0xeea ; GetAngle + 170
        0x00000ee2:    2007        .       MOVS     r0,#7
        0x00000ee4:    4907        .I      LDR      r1,[pc,#28] ; [0xf04] = 0x2000004b
        0x00000ee6:    7008        .p      STRB     r0,[r1,#0]
        0x00000ee8:    e002        ..      B        0xef0 ; GetAngle + 176
        0x00000eea:    2008        .       MOVS     r0,#8
        0x00000eec:    4905        .I      LDR      r1,[pc,#20] ; [0xf04] = 0x2000004b
        0x00000eee:    7008        .p      STRB     r0,[r1,#0]
        0x00000ef0:    4804        .H      LDR      r0,[pc,#16] ; [0xf04] = 0x2000004b
        0x00000ef2:    7800        .x      LDRB     r0,[r0,#0]
        0x00000ef4:    4904        .I      LDR      r1,[pc,#16] ; [0xf08] = 0x40003040
        0x00000ef6:    6248        Hb      STR      r0,[r1,#0x24]
        0x00000ef8:    e002        ..      B        0xf00 ; GetAngle + 192
        0x00000efa:    2000        .       MOVS     r0,#0
        0x00000efc:    4902        .I      LDR      r1,[pc,#8] ; [0xf08] = 0x40003040
        0x00000efe:    6248        Hb      STR      r0,[r1,#0x24]
        0x00000f00:    bd10        ..      POP      {r4,pc}
    $d
        0x00000f02:    0000        ..      DCW    0
        0x00000f04:    2000004b    K..     DCD    536870987
        0x00000f08:    40003040    @0.@    DCD    1073754176
    $t
    i.GetDownFirstCnt
    GetDownFirstCnt
        0x00000f0c:    4801        .H      LDR      r0,[pc,#4] ; [0xf14] = 0x40009000
        0x00000f0e:    68c0        .h      LDR      r0,[r0,#0xc]
        0x00000f10:    4770        pG      BX       lr
    $d
        0x00000f12:    0000        ..      DCW    0
        0x00000f14:    40009000    ...@    DCD    1073778688
    $t
    i.GetGameMode
    GetGameMode
        0x00000f18:    4801        .H      LDR      r0,[pc,#4] ; [0xf20] = 0x40003040
        0x00000f1a:    69c0        .i      LDR      r0,[r0,#0x1c]
        0x00000f1c:    b2c0        ..      UXTB     r0,r0
        0x00000f1e:    4770        pG      BX       lr
    $d
        0x00000f20:    40003040    @0.@    DCD    1073754176
    $t
    i.GetGameState
    GetGameState
        0x00000f24:    4801        .H      LDR      r0,[pc,#4] ; [0xf2c] = 0x40003040
        0x00000f26:    6900        .i      LDR      r0,[r0,#0x10]
        0x00000f28:    b2c0        ..      UXTB     r0,r0
        0x00000f2a:    4770        pG      BX       lr
    $d
        0x00000f2c:    40003040    @0.@    DCD    1073754176
    $t
    i.GetLeftFirstCnt
    GetLeftFirstCnt
        0x00000f30:    4801        .H      LDR      r0,[pc,#4] ; [0xf38] = 0x40009000
        0x00000f32:    6800        .h      LDR      r0,[r0,#0]
        0x00000f34:    4770        pG      BX       lr
    $d
        0x00000f36:    0000        ..      DCW    0
        0x00000f38:    40009000    ...@    DCD    1073778688
    $t
    i.GetLeftRightState
    GetLeftRightState
        0x00000f3c:    4801        .H      LDR      r0,[pc,#4] ; [0xf44] = 0x40009000
        0x00000f3e:    6940        @i      LDR      r0,[r0,#0x14]
        0x00000f40:    b2c0        ..      UXTB     r0,r0
        0x00000f42:    4770        pG      BX       lr
    $d
        0x00000f44:    40009000    ...@    DCD    1073778688
    $t
    i.GetPauseMode
    GetPauseMode
        0x00000f48:    4801        .H      LDR      r0,[pc,#4] ; [0xf50] = 0x40003040
        0x00000f4a:    6a00        .j      LDR      r0,[r0,#0x20]
        0x00000f4c:    b2c0        ..      UXTB     r0,r0
        0x00000f4e:    4770        pG      BX       lr
    $d
        0x00000f50:    40003040    @0.@    DCD    1073754176
    $t
    i.GetRightFirstCnt
    GetRightFirstCnt
        0x00000f54:    4801        .H      LDR      r0,[pc,#4] ; [0xf5c] = 0x40009000
        0x00000f56:    6840        @h      LDR      r0,[r0,#4]
        0x00000f58:    4770        pG      BX       lr
    $d
        0x00000f5a:    0000        ..      DCW    0
        0x00000f5c:    40009000    ...@    DCD    1073778688
    $t
    i.GetUpDownState
    GetUpDownState
        0x00000f60:    4801        .H      LDR      r0,[pc,#4] ; [0xf68] = 0x40009000
        0x00000f62:    6900        .i      LDR      r0,[r0,#0x10]
        0x00000f64:    b2c0        ..      UXTB     r0,r0
        0x00000f66:    4770        pG      BX       lr
    $d
        0x00000f68:    40009000    ...@    DCD    1073778688
    $t
    i.GetUpFirstCnt
    GetUpFirstCnt
        0x00000f6c:    4801        .H      LDR      r0,[pc,#4] ; [0xf74] = 0x40009000
        0x00000f6e:    6880        .h      LDR      r0,[r0,#8]
        0x00000f70:    4770        pG      BX       lr
    $d
        0x00000f72:    0000        ..      DCW    0
        0x00000f74:    40009000    ...@    DCD    1073778688
    $t
    i.IMU_init
    IMU_init
        0x00000f78:    b510        ..      PUSH     {r4,lr}
        0x00000f7a:    2301        .#      MOVS     r3,#1
        0x00000f7c:    2200        ."      MOVS     r2,#0
        0x00000f7e:    21e1        .!      MOVS     r1,#0xe1
        0x00000f80:    0249        I.      LSLS     r1,r1,#9
        0x00000f82:    4807        .H      LDR      r0,[pc,#28] ; [0xfa0] = 0x50005000
        0x00000f84:    f001f90a    ....    BL       UART_Init ; 0x219c
        0x00000f88:    2201        ."      MOVS     r2,#1
        0x00000f8a:    2100        .!      MOVS     r1,#0
        0x00000f8c:    4804        .H      LDR      r0,[pc,#16] ; [0xfa0] = 0x50005000
        0x00000f8e:    f001f8f6    ....    BL       UART_IRQInit ; 0x217e
        0x00000f92:    2002        .       MOVS     r0,#2
        0x00000f94:    2101        .!      MOVS     r1,#1
        0x00000f96:    4081        .@      LSLS     r1,r1,r0
        0x00000f98:    4a02        .J      LDR      r2,[pc,#8] ; [0xfa4] = 0xe000e100
        0x00000f9a:    6011        .`      STR      r1,[r2,#0]
        0x00000f9c:    bf00        ..      NOP      
        0x00000f9e:    bd10        ..      POP      {r4,pc}
    $d
        0x00000fa0:    50005000    .P.P    DCD    1342197760
        0x00000fa4:    e000e100    ....    DCD    3758153984
    $t
    i.NVIC_EnableIRQ
    NVIC_EnableIRQ
        0x00000fa8:    06c2        ..      LSLS     r2,r0,#27
        0x00000faa:    0ed2        ..      LSRS     r2,r2,#27
        0x00000fac:    2101        .!      MOVS     r1,#1
        0x00000fae:    4091        .@      LSLS     r1,r1,r2
        0x00000fb0:    4a01        .J      LDR      r2,[pc,#4] ; [0xfb8] = 0xe000e100
        0x00000fb2:    6011        .`      STR      r1,[r2,#0]
        0x00000fb4:    4770        pG      BX       lr
    $d
        0x00000fb6:    0000        ..      DCW    0
        0x00000fb8:    e000e100    ....    DCD    3758153984
    $t
    i.NVIC_EnableIRQ
    NVIC_EnableIRQ
        0x00000fbc:    06c2        ..      LSLS     r2,r0,#27
        0x00000fbe:    0ed2        ..      LSRS     r2,r2,#27
        0x00000fc0:    2101        .!      MOVS     r1,#1
        0x00000fc2:    4091        .@      LSLS     r1,r1,r2
        0x00000fc4:    4a01        .J      LDR      r2,[pc,#4] ; [0xfcc] = 0xe000e100
        0x00000fc6:    6011        .`      STR      r1,[r2,#0]
        0x00000fc8:    4770        pG      BX       lr
    $d
        0x00000fca:    0000        ..      DCW    0
        0x00000fcc:    e000e100    ....    DCD    3758153984
    $t
    i.OLED_Angle
    OLED_Angle
        0x00000fd0:    b51c        ..      PUSH     {r2-r4,lr}
        0x00000fd2:    2001        .       MOVS     r0,#1
        0x00000fd4:    210c        .!      MOVS     r1,#0xc
        0x00000fd6:    2302        .#      MOVS     r3,#2
        0x00000fd8:    9100        ..      STR      r1,[sp,#0]
        0x00000fda:    9001        ..      STR      r0,[sp,#4]
        0x00000fdc:    4803        .H      LDR      r0,[pc,#12] ; [0xfec] = 0x2000004b
        0x00000fde:    7802        .x      LDRB     r2,[r0,#0]
        0x00000fe0:    212d        -!      MOVS     r1,#0x2d
        0x00000fe2:    2014        .       MOVS     r0,#0x14
        0x00000fe4:    f000f9c6    ....    BL       OLED_ShowNum ; 0x1374
        0x00000fe8:    bd1c        ..      POP      {r2-r4,pc}
    $d
        0x00000fea:    0000        ..      DCW    0
        0x00000fec:    2000004b    K..     DCD    536870987
    $t
    i.OLED_Clear
    OLED_Clear
        0x00000ff0:    b570        p.      PUSH     {r4-r6,lr}
        0x00000ff2:    2400        .$      MOVS     r4,#0
        0x00000ff4:    e00c        ..      B        0x1010 ; OLED_Clear + 32
        0x00000ff6:    2500        .%      MOVS     r5,#0
        0x00000ff8:    e006        ..      B        0x1008 ; OLED_Clear + 24
        0x00000ffa:    2000        .       MOVS     r0,#0
        0x00000ffc:    00e9        ..      LSLS     r1,r5,#3
        0x00000ffe:    4a07        .J      LDR      r2,[pc,#28] ; [0x101c] = 0x20000089
        0x00001000:    1889        ..      ADDS     r1,r1,r2
        0x00001002:    5508        .U      STRB     r0,[r1,r4]
        0x00001004:    1c68        h.      ADDS     r0,r5,#1
        0x00001006:    b2c5        ..      UXTB     r5,r0
        0x00001008:    2d80        .-      CMP      r5,#0x80
        0x0000100a:    dbf6        ..      BLT      0xffa ; OLED_Clear + 10
        0x0000100c:    1c60        `.      ADDS     r0,r4,#1
        0x0000100e:    b2c4        ..      UXTB     r4,r0
        0x00001010:    2c08        .,      CMP      r4,#8
        0x00001012:    dbf0        ..      BLT      0xff6 ; OLED_Clear + 6
        0x00001014:    f000f906    ....    BL       OLED_Refresh ; 0x1224
        0x00001018:    bd70        p.      POP      {r4-r6,pc}
    $d
        0x0000101a:    0000        ..      DCW    0
        0x0000101c:    20000089    ...     DCD    536871049
    $t
    i.OLED_ColorTurn
    OLED_ColorTurn
        0x00001020:    b510        ..      PUSH     {r4,lr}
        0x00001022:    4604        .F      MOV      r4,r0
        0x00001024:    2c00        .,      CMP      r4,#0
        0x00001026:    d103        ..      BNE      0x1030 ; OLED_ColorTurn + 16
        0x00001028:    2100        .!      MOVS     r1,#0
        0x0000102a:    20a6        .       MOVS     r0,#0xa6
        0x0000102c:    f000faae    ....    BL       OLED_WR_Byte ; 0x158c
        0x00001030:    2c01        .,      CMP      r4,#1
        0x00001032:    d103        ..      BNE      0x103c ; OLED_ColorTurn + 28
        0x00001034:    2100        .!      MOVS     r1,#0
        0x00001036:    20a7        .       MOVS     r0,#0xa7
        0x00001038:    f000faa8    ....    BL       OLED_WR_Byte ; 0x158c
        0x0000103c:    bd10        ..      POP      {r4,pc}
        0x0000103e:    0000        ..      MOVS     r0,r0
    i.OLED_DrawPoint
    OLED_DrawPoint
        0x00001040:    b5f8        ..      PUSH     {r3-r7,lr}
        0x00001042:    4614        .F      MOV      r4,r2
        0x00001044:    460b        .F      MOV      r3,r1
        0x00001046:    17ce        ..      ASRS     r6,r1,#31
        0x00001048:    0f76        v.      LSRS     r6,r6,#29
        0x0000104a:    18f6        ..      ADDS     r6,r6,r3
        0x0000104c:    0576        v.      LSLS     r6,r6,#21
        0x0000104e:    0e32        2.      LSRS     r2,r6,#24
        0x00001050:    17ce        ..      ASRS     r6,r1,#31
        0x00001052:    0f76        v.      LSRS     r6,r6,#29
        0x00001054:    18f6        ..      ADDS     r6,r6,r3
        0x00001056:    10f6        ..      ASRS     r6,r6,#3
        0x00001058:    00f6        ..      LSLS     r6,r6,#3
        0x0000105a:    1b8e        ..      SUBS     r6,r1,r6
        0x0000105c:    b2f6        ..      UXTB     r6,r6
        0x0000105e:    9600        ..      STR      r6,[sp,#0]
        0x00001060:    2601        .&      MOVS     r6,#1
        0x00001062:    9b00        ..      LDR      r3,[sp,#0]
        0x00001064:    409e        .@      LSLS     r6,r6,r3
        0x00001066:    b2f5        ..      UXTB     r5,r6
        0x00001068:    2c00        .,      CMP      r4,#0
        0x0000106a:    d009        ..      BEQ      0x1080 ; OLED_DrawPoint + 64
        0x0000106c:    00c3        ..      LSLS     r3,r0,#3
        0x0000106e:    4e11        .N      LDR      r6,[pc,#68] ; [0x10b4] = 0x20000089
        0x00001070:    199b        ..      ADDS     r3,r3,r6
        0x00001072:    5c9b        .\      LDRB     r3,[r3,r2]
        0x00001074:    432b        +C      ORRS     r3,r3,r5
        0x00001076:    00c6        ..      LSLS     r6,r0,#3
        0x00001078:    4f0e        .O      LDR      r7,[pc,#56] ; [0x10b4] = 0x20000089
        0x0000107a:    19f6        ..      ADDS     r6,r6,r7
        0x0000107c:    54b3        .T      STRB     r3,[r6,r2]
        0x0000107e:    e018        ..      B        0x10b2 ; OLED_DrawPoint + 114
        0x00001080:    00c3        ..      LSLS     r3,r0,#3
        0x00001082:    4e0c        .N      LDR      r6,[pc,#48] ; [0x10b4] = 0x20000089
        0x00001084:    199b        ..      ADDS     r3,r3,r6
        0x00001086:    5c9b        .\      LDRB     r3,[r3,r2]
        0x00001088:    43db        .C      MVNS     r3,r3
        0x0000108a:    00c6        ..      LSLS     r6,r0,#3
        0x0000108c:    4f09        .O      LDR      r7,[pc,#36] ; [0x10b4] = 0x20000089
        0x0000108e:    19f6        ..      ADDS     r6,r6,r7
        0x00001090:    54b3        .T      STRB     r3,[r6,r2]
        0x00001092:    00c3        ..      LSLS     r3,r0,#3
        0x00001094:    463e        >F      MOV      r6,r7
        0x00001096:    199b        ..      ADDS     r3,r3,r6
        0x00001098:    5c9b        .\      LDRB     r3,[r3,r2]
        0x0000109a:    432b        +C      ORRS     r3,r3,r5
        0x0000109c:    00c6        ..      LSLS     r6,r0,#3
        0x0000109e:    19f6        ..      ADDS     r6,r6,r7
        0x000010a0:    54b3        .T      STRB     r3,[r6,r2]
        0x000010a2:    00c3        ..      LSLS     r3,r0,#3
        0x000010a4:    463e        >F      MOV      r6,r7
        0x000010a6:    199b        ..      ADDS     r3,r3,r6
        0x000010a8:    5c9b        .\      LDRB     r3,[r3,r2]
        0x000010aa:    43db        .C      MVNS     r3,r3
        0x000010ac:    00c6        ..      LSLS     r6,r0,#3
        0x000010ae:    19f6        ..      ADDS     r6,r6,r7
        0x000010b0:    54b3        .T      STRB     r3,[r6,r2]
        0x000010b2:    bdf8        ..      POP      {r3-r7,pc}
    $d
        0x000010b4:    20000089    ...     DCD    536871049
    $t
    i.OLED_Init
    OLED_Init
        0x000010b8:    b50e        ..      PUSH     {r1-r3,lr}
        0x000010ba:    2000        .       MOVS     r0,#0
        0x000010bc:    9001        ..      STR      r0,[sp,#4]
        0x000010be:    9002        ..      STR      r0,[sp,#8]
        0x000010c0:    201f        .       MOVS     r0,#0x1f
        0x000010c2:    9000        ..      STR      r0,[sp,#0]
        0x000010c4:    4669        iF      MOV      r1,sp
        0x000010c6:    2001        .       MOVS     r0,#1
        0x000010c8:    0780        ..      LSLS     r0,r0,#30
        0x000010ca:    f7fffd13    ....    BL       GPIO_Init ; 0xaf4
        0x000010ce:    2104        .!      MOVS     r1,#4
        0x000010d0:    0708        ..      LSLS     r0,r1,#28
        0x000010d2:    f7fffd0b    ....    BL       GPIO_ClrOutput ; 0xaec
        0x000010d6:    20c8        .       MOVS     r0,#0xc8
        0x000010d8:    f001f8aa    ....    BL       delay_ms ; 0x2230
        0x000010dc:    2104        .!      MOVS     r1,#4
        0x000010de:    0708        ..      LSLS     r0,r1,#28
        0x000010e0:    f7fffd4f    ..O.    BL       GPIO_SetOutput ; 0xb82
        0x000010e4:    2100        .!      MOVS     r1,#0
        0x000010e6:    20ae        .       MOVS     r0,#0xae
        0x000010e8:    f000fa50    ..P.    BL       OLED_WR_Byte ; 0x158c
        0x000010ec:    2100        .!      MOVS     r1,#0
        0x000010ee:    4608        .F      MOV      r0,r1
        0x000010f0:    f000fa4c    ..L.    BL       OLED_WR_Byte ; 0x158c
        0x000010f4:    2100        .!      MOVS     r1,#0
        0x000010f6:    2010        .       MOVS     r0,#0x10
        0x000010f8:    f000fa48    ..H.    BL       OLED_WR_Byte ; 0x158c
        0x000010fc:    2100        .!      MOVS     r1,#0
        0x000010fe:    2040        @       MOVS     r0,#0x40
        0x00001100:    f000fa44    ..D.    BL       OLED_WR_Byte ; 0x158c
        0x00001104:    2100        .!      MOVS     r1,#0
        0x00001106:    2081        .       MOVS     r0,#0x81
        0x00001108:    f000fa40    ..@.    BL       OLED_WR_Byte ; 0x158c
        0x0000110c:    2100        .!      MOVS     r1,#0
        0x0000110e:    20cf        .       MOVS     r0,#0xcf
        0x00001110:    f000fa3c    ..<.    BL       OLED_WR_Byte ; 0x158c
        0x00001114:    2100        .!      MOVS     r1,#0
        0x00001116:    20a1        .       MOVS     r0,#0xa1
        0x00001118:    f000fa38    ..8.    BL       OLED_WR_Byte ; 0x158c
        0x0000111c:    2100        .!      MOVS     r1,#0
        0x0000111e:    20c8        .       MOVS     r0,#0xc8
        0x00001120:    f000fa34    ..4.    BL       OLED_WR_Byte ; 0x158c
        0x00001124:    2100        .!      MOVS     r1,#0
        0x00001126:    20a6        .       MOVS     r0,#0xa6
        0x00001128:    f000fa30    ..0.    BL       OLED_WR_Byte ; 0x158c
        0x0000112c:    2100        .!      MOVS     r1,#0
        0x0000112e:    20a8        .       MOVS     r0,#0xa8
        0x00001130:    f000fa2c    ..,.    BL       OLED_WR_Byte ; 0x158c
        0x00001134:    2100        .!      MOVS     r1,#0
        0x00001136:    203f        ?       MOVS     r0,#0x3f
        0x00001138:    f000fa28    ..(.    BL       OLED_WR_Byte ; 0x158c
        0x0000113c:    2100        .!      MOVS     r1,#0
        0x0000113e:    20d3        .       MOVS     r0,#0xd3
        0x00001140:    f000fa24    ..$.    BL       OLED_WR_Byte ; 0x158c
        0x00001144:    2100        .!      MOVS     r1,#0
        0x00001146:    4608        .F      MOV      r0,r1
        0x00001148:    f000fa20    .. .    BL       OLED_WR_Byte ; 0x158c
        0x0000114c:    2100        .!      MOVS     r1,#0
        0x0000114e:    20d5        .       MOVS     r0,#0xd5
        0x00001150:    f000fa1c    ....    BL       OLED_WR_Byte ; 0x158c
        0x00001154:    2100        .!      MOVS     r1,#0
        0x00001156:    2080        .       MOVS     r0,#0x80
        0x00001158:    f000fa18    ....    BL       OLED_WR_Byte ; 0x158c
        0x0000115c:    2100        .!      MOVS     r1,#0
        0x0000115e:    20d9        .       MOVS     r0,#0xd9
        0x00001160:    f000fa14    ....    BL       OLED_WR_Byte ; 0x158c
        0x00001164:    2100        .!      MOVS     r1,#0
        0x00001166:    20f1        .       MOVS     r0,#0xf1
        0x00001168:    f000fa10    ....    BL       OLED_WR_Byte ; 0x158c
        0x0000116c:    2100        .!      MOVS     r1,#0
        0x0000116e:    20da        .       MOVS     r0,#0xda
        0x00001170:    f000fa0c    ....    BL       OLED_WR_Byte ; 0x158c
        0x00001174:    2100        .!      MOVS     r1,#0
        0x00001176:    2012        .       MOVS     r0,#0x12
        0x00001178:    f000fa08    ....    BL       OLED_WR_Byte ; 0x158c
        0x0000117c:    2100        .!      MOVS     r1,#0
        0x0000117e:    20db        .       MOVS     r0,#0xdb
        0x00001180:    f000fa04    ....    BL       OLED_WR_Byte ; 0x158c
        0x00001184:    2100        .!      MOVS     r1,#0
        0x00001186:    2040        @       MOVS     r0,#0x40
        0x00001188:    f000fa00    ....    BL       OLED_WR_Byte ; 0x158c
        0x0000118c:    2100        .!      MOVS     r1,#0
        0x0000118e:    2020                MOVS     r0,#0x20
        0x00001190:    f000f9fc    ....    BL       OLED_WR_Byte ; 0x158c
        0x00001194:    2100        .!      MOVS     r1,#0
        0x00001196:    2002        .       MOVS     r0,#2
        0x00001198:    f000f9f8    ....    BL       OLED_WR_Byte ; 0x158c
        0x0000119c:    2100        .!      MOVS     r1,#0
        0x0000119e:    208d        .       MOVS     r0,#0x8d
        0x000011a0:    f000f9f4    ....    BL       OLED_WR_Byte ; 0x158c
        0x000011a4:    2100        .!      MOVS     r1,#0
        0x000011a6:    2014        .       MOVS     r0,#0x14
        0x000011a8:    f000f9f0    ....    BL       OLED_WR_Byte ; 0x158c
        0x000011ac:    2100        .!      MOVS     r1,#0
        0x000011ae:    20a4        .       MOVS     r0,#0xa4
        0x000011b0:    f000f9ec    ....    BL       OLED_WR_Byte ; 0x158c
        0x000011b4:    2100        .!      MOVS     r1,#0
        0x000011b6:    20a6        .       MOVS     r0,#0xa6
        0x000011b8:    f000f9e8    ....    BL       OLED_WR_Byte ; 0x158c
        0x000011bc:    2100        .!      MOVS     r1,#0
        0x000011be:    20af        .       MOVS     r0,#0xaf
        0x000011c0:    f000f9e4    ....    BL       OLED_WR_Byte ; 0x158c
        0x000011c4:    f7ffff14    ....    BL       OLED_Clear ; 0xff0
        0x000011c8:    2001        .       MOVS     r0,#1
        0x000011ca:    f7ffff29    ..).    BL       OLED_ColorTurn ; 0x1020
        0x000011ce:    bd0e        ..      POP      {r1-r3,pc}
    i.OLED_PS2
    OLED_PS2
        0x000011d0:    b51c        ..      PUSH     {r2-r4,lr}
        0x000011d2:    2001        .       MOVS     r0,#1
        0x000011d4:    210c        .!      MOVS     r1,#0xc
        0x000011d6:    2303        .#      MOVS     r3,#3
        0x000011d8:    9100        ..      STR      r1,[sp,#0]
        0x000011da:    9001        ..      STR      r0,[sp,#4]
        0x000011dc:    4808        .H      LDR      r0,[pc,#32] ; [0x1200] = 0x20000060
        0x000011de:    211e        .!      MOVS     r1,#0x1e
        0x000011e0:    6802        .h      LDR      r2,[r0,#0]
        0x000011e2:    2014        .       MOVS     r0,#0x14
        0x000011e4:    f000f8c6    ....    BL       OLED_ShowNum ; 0x1374
        0x000011e8:    2001        .       MOVS     r0,#1
        0x000011ea:    210c        .!      MOVS     r1,#0xc
        0x000011ec:    2303        .#      MOVS     r3,#3
        0x000011ee:    9100        ..      STR      r1,[sp,#0]
        0x000011f0:    9001        ..      STR      r0,[sp,#4]
        0x000011f2:    4804        .H      LDR      r0,[pc,#16] ; [0x1204] = 0x20000064
        0x000011f4:    211e        .!      MOVS     r1,#0x1e
        0x000011f6:    6802        .h      LDR      r2,[r0,#0]
        0x000011f8:    2054        T       MOVS     r0,#0x54
        0x000011fa:    f000f8bb    ....    BL       OLED_ShowNum ; 0x1374
        0x000011fe:    bd1c        ..      POP      {r2-r4,pc}
    $d
        0x00001200:    20000060    `..     DCD    536871008
        0x00001204:    20000064    d..     DCD    536871012
    $t
    i.OLED_Pow
    OLED_Pow
        0x00001208:    b510        ..      PUSH     {r4,lr}
        0x0000120a:    4602        .F      MOV      r2,r0
        0x0000120c:    2001        .       MOVS     r0,#1
        0x0000120e:    e002        ..      B        0x1216 ; OLED_Pow + 14
        0x00001210:    4603        .F      MOV      r3,r0
        0x00001212:    4353        SC      MULS     r3,r2,r3
        0x00001214:    4618        .F      MOV      r0,r3
        0x00001216:    460b        .F      MOV      r3,r1
        0x00001218:    1e4c        L.      SUBS     r4,r1,#1
        0x0000121a:    b2e1        ..      UXTB     r1,r4
        0x0000121c:    2b00        .+      CMP      r3,#0
        0x0000121e:    d1f7        ..      BNE      0x1210 ; OLED_Pow + 8
        0x00001220:    bd10        ..      POP      {r4,pc}
        0x00001222:    0000        ..      MOVS     r0,r0
    i.OLED_Refresh
    OLED_Refresh
        0x00001224:    b570        p.      PUSH     {r4-r6,lr}
        0x00001226:    2400        .$      MOVS     r4,#0
        0x00001228:    e01c        ..      B        0x1264 ; OLED_Refresh + 64
        0x0000122a:    4621        !F      MOV      r1,r4
        0x0000122c:    31b0        .1      ADDS     r1,r1,#0xb0
        0x0000122e:    b2c8        ..      UXTB     r0,r1
        0x00001230:    2100        .!      MOVS     r1,#0
        0x00001232:    f000f9ab    ....    BL       OLED_WR_Byte ; 0x158c
        0x00001236:    2100        .!      MOVS     r1,#0
        0x00001238:    4608        .F      MOV      r0,r1
        0x0000123a:    f000f9a7    ....    BL       OLED_WR_Byte ; 0x158c
        0x0000123e:    2100        .!      MOVS     r1,#0
        0x00001240:    2010        .       MOVS     r0,#0x10
        0x00001242:    f000f9a3    ....    BL       OLED_WR_Byte ; 0x158c
        0x00001246:    2500        .%      MOVS     r5,#0
        0x00001248:    e008        ..      B        0x125c ; OLED_Refresh + 56
        0x0000124a:    00e9        ..      LSLS     r1,r5,#3
        0x0000124c:    4a07        .J      LDR      r2,[pc,#28] ; [0x126c] = 0x20000089
        0x0000124e:    1889        ..      ADDS     r1,r1,r2
        0x00001250:    5d08        .]      LDRB     r0,[r1,r4]
        0x00001252:    2101        .!      MOVS     r1,#1
        0x00001254:    f000f99a    ....    BL       OLED_WR_Byte ; 0x158c
        0x00001258:    1c68        h.      ADDS     r0,r5,#1
        0x0000125a:    b2c5        ..      UXTB     r5,r0
        0x0000125c:    2d80        .-      CMP      r5,#0x80
        0x0000125e:    dbf4        ..      BLT      0x124a ; OLED_Refresh + 38
        0x00001260:    1c60        `.      ADDS     r0,r4,#1
        0x00001262:    b2c4        ..      UXTB     r4,r0
        0x00001264:    2c08        .,      CMP      r4,#8
        0x00001266:    dbe0        ..      BLT      0x122a ; OLED_Refresh + 6
        0x00001268:    bd70        p.      POP      {r4-r6,pc}
    $d
        0x0000126a:    0000        ..      DCW    0
        0x0000126c:    20000089    ...     DCD    536871049
    $t
    i.OLED_ShowChar
    OLED_ShowChar
        0x00001270:    b5ff        ..      PUSH     {r0-r7,lr}
        0x00001272:    b087        ..      SUB      sp,sp,#0x1c
        0x00001274:    4606        .F      MOV      r6,r0
        0x00001276:    461c        .F      MOV      r4,r3
        0x00001278:    9603        ..      STR      r6,[sp,#0xc]
        0x0000127a:    9808        ..      LDR      r0,[sp,#0x20]
        0x0000127c:    9002        ..      STR      r0,[sp,#8]
        0x0000127e:    2c08        .,      CMP      r4,#8
        0x00001280:    d102        ..      BNE      0x1288 ; OLED_ShowChar + 24
        0x00001282:    2006        .       MOVS     r0,#6
        0x00001284:    9005        ..      STR      r0,[sp,#0x14]
        0x00001286:    e017        ..      B        0x12b8 ; OLED_ShowChar + 72
        0x00001288:    4620         F      MOV      r0,r4
        0x0000128a:    17e2        ..      ASRS     r2,r4,#31
        0x0000128c:    0f52        R.      LSRS     r2,r2,#29
        0x0000128e:    1812        ..      ADDS     r2,r2,r0
        0x00001290:    10d2        ..      ASRS     r2,r2,#3
        0x00001292:    17e3        ..      ASRS     r3,r4,#31
        0x00001294:    0f5b        [.      LSRS     r3,r3,#29
        0x00001296:    181b        ..      ADDS     r3,r3,r0
        0x00001298:    10db        ..      ASRS     r3,r3,#3
        0x0000129a:    00db        ..      LSLS     r3,r3,#3
        0x0000129c:    9401        ..      STR      r4,[sp,#4]
        0x0000129e:    1ae3        ..      SUBS     r3,r4,r3
        0x000012a0:    d001        ..      BEQ      0x12a6 ; OLED_ShowChar + 54
        0x000012a2:    2301        .#      MOVS     r3,#1
        0x000012a4:    e000        ..      B        0x12a8 ; OLED_ShowChar + 56
        0x000012a6:    2300        .#      MOVS     r3,#0
        0x000012a8:    18d2        ..      ADDS     r2,r2,r3
        0x000012aa:    4621        !F      MOV      r1,r4
        0x000012ac:    0fe3        ..      LSRS     r3,r4,#31
        0x000012ae:    185b        [.      ADDS     r3,r3,r1
        0x000012b0:    105b        [.      ASRS     r3,r3,#1
        0x000012b2:    435a        ZC      MULS     r2,r3,r2
        0x000012b4:    b2d2        ..      UXTB     r2,r2
        0x000012b6:    9205        ..      STR      r2,[sp,#0x14]
        0x000012b8:    9809        ..      LDR      r0,[sp,#0x24]
        0x000012ba:    3820         8      SUBS     r0,r0,#0x20
        0x000012bc:    b2c0        ..      UXTB     r0,r0
        0x000012be:    9004        ..      STR      r0,[sp,#0x10]
        0x000012c0:    2500        .%      MOVS     r5,#0
        0x000012c2:    e04b        K.      B        0x135c ; OLED_ShowChar + 236
        0x000012c4:    2c08        .,      CMP      r4,#8
        0x000012c6:    d106        ..      BNE      0x12d6 ; OLED_ShowChar + 102
        0x000012c8:    2106        .!      MOVS     r1,#6
        0x000012ca:    9804        ..      LDR      r0,[sp,#0x10]
        0x000012cc:    4348        HC      MULS     r0,r1,r0
        0x000012ce:    4927        'I      LDR      r1,[pc,#156] ; [0x136c] = 0x25e8
        0x000012d0:    1840        @.      ADDS     r0,r0,r1
        0x000012d2:    5d47        G]      LDRB     r7,[r0,r5]
        0x000012d4:    e00a        ..      B        0x12ec ; OLED_ShowChar + 124
        0x000012d6:    2c0c        .,      CMP      r4,#0xc
        0x000012d8:    d106        ..      BNE      0x12e8 ; OLED_ShowChar + 120
        0x000012da:    210c        .!      MOVS     r1,#0xc
        0x000012dc:    9804        ..      LDR      r0,[sp,#0x10]
        0x000012de:    4348        HC      MULS     r0,r1,r0
        0x000012e0:    4923        #I      LDR      r1,[pc,#140] ; [0x1370] = 0x2810
        0x000012e2:    1840        @.      ADDS     r0,r0,r1
        0x000012e4:    5d47        G]      LDRB     r7,[r0,r5]
        0x000012e6:    e001        ..      B        0x12ec ; OLED_ShowChar + 124
        0x000012e8:    b00b        ..      ADD      sp,sp,#0x2c
        0x000012ea:    bdf0        ..      POP      {r4-r7,pc}
        0x000012ec:    2000        .       MOVS     r0,#0
        0x000012ee:    9006        ..      STR      r0,[sp,#0x18]
        0x000012f0:    e01d        ..      B        0x132e ; OLED_ShowChar + 190
        0x000012f2:    07f8        ..      LSLS     r0,r7,#31
        0x000012f4:    0fc0        ..      LSRS     r0,r0,#31
        0x000012f6:    2800        .(      CMP      r0,#0
        0x000012f8:    d005        ..      BEQ      0x1306 ; OLED_ShowChar + 150
        0x000012fa:    4630        0F      MOV      r0,r6
        0x000012fc:    9a10        ..      LDR      r2,[sp,#0x40]
        0x000012fe:    9908        ..      LDR      r1,[sp,#0x20]
        0x00001300:    f7fffe9e    ....    BL       OLED_DrawPoint ; 0x1040
        0x00001304:    e00a        ..      B        0x131c ; OLED_ShowChar + 172
        0x00001306:    9810        ..      LDR      r0,[sp,#0x40]
        0x00001308:    2800        .(      CMP      r0,#0
        0x0000130a:    d101        ..      BNE      0x1310 ; OLED_ShowChar + 160
        0x0000130c:    2001        .       MOVS     r0,#1
        0x0000130e:    e000        ..      B        0x1312 ; OLED_ShowChar + 162
        0x00001310:    2000        .       MOVS     r0,#0
        0x00001312:    4602        .F      MOV      r2,r0
        0x00001314:    4630        0F      MOV      r0,r6
        0x00001316:    9908        ..      LDR      r1,[sp,#0x20]
        0x00001318:    f7fffe92    ....    BL       OLED_DrawPoint ; 0x1040
        0x0000131c:    107f        ..      ASRS     r7,r7,#1
        0x0000131e:    9808        ..      LDR      r0,[sp,#0x20]
        0x00001320:    1c40        @.      ADDS     r0,r0,#1
        0x00001322:    b2c0        ..      UXTB     r0,r0
        0x00001324:    9008        ..      STR      r0,[sp,#0x20]
        0x00001326:    9806        ..      LDR      r0,[sp,#0x18]
        0x00001328:    1c40        @.      ADDS     r0,r0,#1
        0x0000132a:    b2c0        ..      UXTB     r0,r0
        0x0000132c:    9006        ..      STR      r0,[sp,#0x18]
        0x0000132e:    9806        ..      LDR      r0,[sp,#0x18]
        0x00001330:    2808        .(      CMP      r0,#8
        0x00001332:    dbde        ..      BLT      0x12f2 ; OLED_ShowChar + 130
        0x00001334:    1c70        p.      ADDS     r0,r6,#1
        0x00001336:    b2c6        ..      UXTB     r6,r0
        0x00001338:    2c08        .,      CMP      r4,#8
        0x0000133a:    d00b        ..      BEQ      0x1354 ; OLED_ShowChar + 228
        0x0000133c:    0fe1        ..      LSRS     r1,r4,#31
        0x0000133e:    1909        ..      ADDS     r1,r1,r4
        0x00001340:    104a        J.      ASRS     r2,r1,#1
        0x00001342:    9903        ..      LDR      r1,[sp,#0xc]
        0x00001344:    1a71        q.      SUBS     r1,r6,r1
        0x00001346:    428a        .B      CMP      r2,r1
        0x00001348:    d104        ..      BNE      0x1354 ; OLED_ShowChar + 228
        0x0000134a:    9e03        ..      LDR      r6,[sp,#0xc]
        0x0000134c:    9802        ..      LDR      r0,[sp,#8]
        0x0000134e:    3008        .0      ADDS     r0,r0,#8
        0x00001350:    b2c0        ..      UXTB     r0,r0
        0x00001352:    9002        ..      STR      r0,[sp,#8]
        0x00001354:    9802        ..      LDR      r0,[sp,#8]
        0x00001356:    9008        ..      STR      r0,[sp,#0x20]
        0x00001358:    1c68        h.      ADDS     r0,r5,#1
        0x0000135a:    b2c5        ..      UXTB     r5,r0
        0x0000135c:    9805        ..      LDR      r0,[sp,#0x14]
        0x0000135e:    4285        .B      CMP      r5,r0
        0x00001360:    dbb0        ..      BLT      0x12c4 ; OLED_ShowChar + 84
        0x00001362:    f7ffff5f    .._.    BL       OLED_Refresh ; 0x1224
        0x00001366:    bf00        ..      NOP      
        0x00001368:    e7be        ..      B        0x12e8 ; OLED_ShowChar + 120
    $d
        0x0000136a:    0000        ..      DCW    0
        0x0000136c:    000025e8    .%..    DCD    9704
        0x00001370:    00002810    .(..    DCD    10256
    $t
    i.OLED_ShowNum
    OLED_ShowNum
        0x00001374:    b5ff        ..      PUSH     {r0-r7,lr}
        0x00001376:    b085        ..      SUB      sp,sp,#0x14
        0x00001378:    4607        .F      MOV      r7,r0
        0x0000137a:    9c0e        ..      LDR      r4,[sp,#0x38]
        0x0000137c:    f7ffff52    ..R.    BL       OLED_Refresh ; 0x1224
        0x00001380:    2000        .       MOVS     r0,#0
        0x00001382:    9004        ..      STR      r0,[sp,#0x10]
        0x00001384:    2c08        .,      CMP      r4,#8
        0x00001386:    d101        ..      BNE      0x138c ; OLED_ShowNum + 24
        0x00001388:    2002        .       MOVS     r0,#2
        0x0000138a:    9004        ..      STR      r0,[sp,#0x10]
        0x0000138c:    2500        .%      MOVS     r5,#0
        0x0000138e:    e03a        :.      B        0x1406 ; OLED_ShowNum + 146
        0x00001390:    9808        ..      LDR      r0,[sp,#0x20]
        0x00001392:    1b40        @.      SUBS     r0,r0,r5
        0x00001394:    1e40        @.      SUBS     r0,r0,#1
        0x00001396:    b2c1        ..      UXTB     r1,r0
        0x00001398:    200a        .       MOVS     r0,#0xa
        0x0000139a:    f7ffff35    ..5.    BL       OLED_Pow ; 0x1208
        0x0000139e:    4601        .F      MOV      r1,r0
        0x000013a0:    9002        ..      STR      r0,[sp,#8]
        0x000013a2:    9807        ..      LDR      r0,[sp,#0x1c]
        0x000013a4:    f7feff26    ..&.    BL       __aeabi_uidiv ; 0x1f4
        0x000013a8:    210a        .!      MOVS     r1,#0xa
        0x000013aa:    9003        ..      STR      r0,[sp,#0xc]
        0x000013ac:    f7feff22    ..".    BL       __aeabi_uidiv ; 0x1f4
        0x000013b0:    460e        .F      MOV      r6,r1
        0x000013b2:    2e00        ..      CMP      r6,#0
        0x000013b4:    d111        ..      BNE      0x13da ; OLED_ShowNum + 102
        0x000013b6:    980f        ..      LDR      r0,[sp,#0x3c]
        0x000013b8:    9403        ..      STR      r4,[sp,#0xc]
        0x000013ba:    9000        ..      STR      r0,[sp,#0]
        0x000013bc:    0fe0        ..      LSRS     r0,r4,#31
        0x000013be:    1900        ..      ADDS     r0,r0,r4
        0x000013c0:    1041        A.      ASRS     r1,r0,#1
        0x000013c2:    9804        ..      LDR      r0,[sp,#0x10]
        0x000013c4:    1808        ..      ADDS     r0,r1,r0
        0x000013c6:    4368        hC      MULS     r0,r5,r0
        0x000013c8:    19c0        ..      ADDS     r0,r0,r7
        0x000013ca:    b2c0        ..      UXTB     r0,r0
        0x000013cc:    4623        #F      MOV      r3,r4
        0x000013ce:    2230        0"      MOVS     r2,#0x30
        0x000013d0:    9002        ..      STR      r0,[sp,#8]
        0x000013d2:    9906        ..      LDR      r1,[sp,#0x18]
        0x000013d4:    f7ffff4c    ..L.    BL       OLED_ShowChar ; 0x1270
        0x000013d8:    e013        ..      B        0x1402 ; OLED_ShowNum + 142
        0x000013da:    980f        ..      LDR      r0,[sp,#0x3c]
        0x000013dc:    9403        ..      STR      r4,[sp,#0xc]
        0x000013de:    9000        ..      STR      r0,[sp,#0]
        0x000013e0:    0fe0        ..      LSRS     r0,r4,#31
        0x000013e2:    1900        ..      ADDS     r0,r0,r4
        0x000013e4:    1041        A.      ASRS     r1,r0,#1
        0x000013e6:    9804        ..      LDR      r0,[sp,#0x10]
        0x000013e8:    1808        ..      ADDS     r0,r1,r0
        0x000013ea:    4368        hC      MULS     r0,r5,r0
        0x000013ec:    19c0        ..      ADDS     r0,r0,r7
        0x000013ee:    b2c0        ..      UXTB     r0,r0
        0x000013f0:    9002        ..      STR      r0,[sp,#8]
        0x000013f2:    4630        0F      MOV      r0,r6
        0x000013f4:    3030        00      ADDS     r0,r0,#0x30
        0x000013f6:    b2c2        ..      UXTB     r2,r0
        0x000013f8:    4623        #F      MOV      r3,r4
        0x000013fa:    9906        ..      LDR      r1,[sp,#0x18]
        0x000013fc:    9802        ..      LDR      r0,[sp,#8]
        0x000013fe:    f7ffff37    ..7.    BL       OLED_ShowChar ; 0x1270
        0x00001402:    1c68        h.      ADDS     r0,r5,#1
        0x00001404:    b2c5        ..      UXTB     r5,r0
        0x00001406:    9808        ..      LDR      r0,[sp,#0x20]
        0x00001408:    4285        .B      CMP      r5,r0
        0x0000140a:    dbc1        ..      BLT      0x1390 ; OLED_ShowNum + 28
        0x0000140c:    b009        ..      ADD      sp,sp,#0x24
        0x0000140e:    bdf0        ..      POP      {r4-r7,pc}
    i.OLED_ShowScore
    OLED_ShowScore
        0x00001410:    b51c        ..      PUSH     {r2-r4,lr}
        0x00001412:    2001        .       MOVS     r0,#1
        0x00001414:    210c        .!      MOVS     r1,#0xc
        0x00001416:    9100        ..      STR      r1,[sp,#0]
        0x00001418:    9001        ..      STR      r0,[sp,#4]
        0x0000141a:    4809        .H      LDR      r0,[pc,#36] ; [0x1440] = 0x40003040
        0x0000141c:    6982        .i      LDR      r2,[r0,#0x18]
        0x0000141e:    2302        .#      MOVS     r3,#2
        0x00001420:    2101        .!      MOVS     r1,#1
        0x00001422:    202c        ,       MOVS     r0,#0x2c
        0x00001424:    f7ffffa6    ....    BL       OLED_ShowNum ; 0x1374
        0x00001428:    2001        .       MOVS     r0,#1
        0x0000142a:    210c        .!      MOVS     r1,#0xc
        0x0000142c:    9100        ..      STR      r1,[sp,#0]
        0x0000142e:    9001        ..      STR      r0,[sp,#4]
        0x00001430:    4803        .H      LDR      r0,[pc,#12] ; [0x1440] = 0x40003040
        0x00001432:    6b82        .k      LDR      r2,[r0,#0x38]
        0x00001434:    2302        .#      MOVS     r3,#2
        0x00001436:    2101        .!      MOVS     r1,#1
        0x00001438:    206b        k       MOVS     r0,#0x6b
        0x0000143a:    f7ffff9b    ....    BL       OLED_ShowNum ; 0x1374
        0x0000143e:    bd1c        ..      POP      {r2-r4,pc}
    $d
        0x00001440:    40003040    @0.@    DCD    1073754176
    $t
    i.OLED_ShowString
    OLED_ShowString
        0x00001444:    b5ff        ..      PUSH     {r0-r7,lr}
        0x00001446:    b081        ..      SUB      sp,sp,#4
        0x00001448:    4606        .F      MOV      r6,r0
        0x0000144a:    4614        .F      MOV      r4,r2
        0x0000144c:    461d        .F      MOV      r5,r3
        0x0000144e:    9f0a        ..      LDR      r7,[sp,#0x28]
        0x00001450:    f7fffee8    ....    BL       OLED_Refresh ; 0x1224
        0x00001454:    e012        ..      B        0x147c ; OLED_ShowString + 56
        0x00001456:    9700        ..      STR      r7,[sp,#0]
        0x00001458:    7822        "x      LDRB     r2,[r4,#0]
        0x0000145a:    462b        +F      MOV      r3,r5
        0x0000145c:    4630        0F      MOV      r0,r6
        0x0000145e:    9902        ..      LDR      r1,[sp,#8]
        0x00001460:    f7ffff06    ....    BL       OLED_ShowChar ; 0x1270
        0x00001464:    2d08        .-      CMP      r5,#8
        0x00001466:    d102        ..      BNE      0x146e ; OLED_ShowString + 42
        0x00001468:    1db0        ..      ADDS     r0,r6,#6
        0x0000146a:    b2c6        ..      UXTB     r6,r0
        0x0000146c:    e005        ..      B        0x147a ; OLED_ShowString + 54
        0x0000146e:    4628        (F      MOV      r0,r5
        0x00001470:    0fe9        ..      LSRS     r1,r5,#31
        0x00001472:    1809        ..      ADDS     r1,r1,r0
        0x00001474:    1049        I.      ASRS     r1,r1,#1
        0x00001476:    1989        ..      ADDS     r1,r1,r6
        0x00001478:    b2ce        ..      UXTB     r6,r1
        0x0000147a:    1c64        d.      ADDS     r4,r4,#1
        0x0000147c:    7820         x      LDRB     r0,[r4,#0]
        0x0000147e:    2820         (      CMP      r0,#0x20
        0x00001480:    db02        ..      BLT      0x1488 ; OLED_ShowString + 68
        0x00001482:    7820         x      LDRB     r0,[r4,#0]
        0x00001484:    287e        ~(      CMP      r0,#0x7e
        0x00001486:    dde6        ..      BLE      0x1456 ; OLED_ShowString + 18
        0x00001488:    f7fffecc    ....    BL       OLED_Refresh ; 0x1224
        0x0000148c:    b005        ..      ADD      sp,sp,#0x14
        0x0000148e:    bdf0        ..      POP      {r4-r7,pc}
    i.OLED_Showgyro
    OLED_Showgyro
        0x00001490:    b57c        |.      PUSH     {r2-r6,lr}
        0x00001492:    2100        .!      MOVS     r1,#0
        0x00001494:    4837        7H      LDR      r0,[pc,#220] ; [0x1574] = 0x20000040
        0x00001496:    6800        .h      LDR      r0,[r0,#0]
        0x00001498:    f001f87a    ..z.    BL       __aeabi_cfrcmple ; 0x2590
        0x0000149c:    d216        ..      BCS      0x14cc ; OLED_Showgyro + 60
        0x0000149e:    2001        .       MOVS     r0,#1
        0x000014a0:    230c        .#      MOVS     r3,#0xc
        0x000014a2:    a235        5.      ADR      r2,{pc}+0xd6 ; 0x1578
        0x000014a4:    210f        .!      MOVS     r1,#0xf
        0x000014a6:    9000        ..      STR      r0,[sp,#0]
        0x000014a8:    f7ffffcc    ....    BL       OLED_ShowString ; 0x1444
        0x000014ac:    4831        1H      LDR      r0,[pc,#196] ; [0x1574] = 0x20000040
        0x000014ae:    6800        .h      LDR      r0,[r0,#0]
        0x000014b0:    f7fff800    ....    BL       __aeabi_f2uiz ; 0x4b4
        0x000014b4:    4604        .F      MOV      r4,r0
        0x000014b6:    2001        .       MOVS     r0,#1
        0x000014b8:    210c        .!      MOVS     r1,#0xc
        0x000014ba:    2303        .#      MOVS     r3,#3
        0x000014bc:    4622        "F      MOV      r2,r4
        0x000014be:    9100        ..      STR      r1,[sp,#0]
        0x000014c0:    9001        ..      STR      r0,[sp,#4]
        0x000014c2:    210f        .!      MOVS     r1,#0xf
        0x000014c4:    2014        .       MOVS     r0,#0x14
        0x000014c6:    f7ffff55    ..U.    BL       OLED_ShowNum ; 0x1374
        0x000014ca:    e019        ..      B        0x1500 ; OLED_Showgyro + 112
        0x000014cc:    2001        .       MOVS     r0,#1
        0x000014ce:    230c        .#      MOVS     r3,#0xc
        0x000014d0:    a22a        *.      ADR      r2,{pc}+0xac ; 0x157c
        0x000014d2:    210f        .!      MOVS     r1,#0xf
        0x000014d4:    9000        ..      STR      r0,[sp,#0]
        0x000014d6:    f7ffffb5    ....    BL       OLED_ShowString ; 0x1444
        0x000014da:    4826        &H      LDR      r0,[pc,#152] ; [0x1574] = 0x20000040
        0x000014dc:    6800        .h      LDR      r0,[r0,#0]
        0x000014de:    2101        .!      MOVS     r1,#1
        0x000014e0:    07c9        ..      LSLS     r1,r1,#31
        0x000014e2:    4048        H@      EORS     r0,r0,r1
        0x000014e4:    4605        .F      MOV      r5,r0
        0x000014e6:    f7feffe5    ....    BL       __aeabi_f2uiz ; 0x4b4
        0x000014ea:    4604        .F      MOV      r4,r0
        0x000014ec:    2001        .       MOVS     r0,#1
        0x000014ee:    210c        .!      MOVS     r1,#0xc
        0x000014f0:    2303        .#      MOVS     r3,#3
        0x000014f2:    4622        "F      MOV      r2,r4
        0x000014f4:    9100        ..      STR      r1,[sp,#0]
        0x000014f6:    9001        ..      STR      r0,[sp,#4]
        0x000014f8:    210f        .!      MOVS     r1,#0xf
        0x000014fa:    2014        .       MOVS     r0,#0x14
        0x000014fc:    f7ffff3a    ..:.    BL       OLED_ShowNum ; 0x1374
        0x00001500:    2100        .!      MOVS     r1,#0
        0x00001502:    481f        .H      LDR      r0,[pc,#124] ; [0x1580] = 0x2000003c
        0x00001504:    6800        .h      LDR      r0,[r0,#0]
        0x00001506:    f001f843    ..C.    BL       __aeabi_cfrcmple ; 0x2590
        0x0000150a:    d217        ..      BCS      0x153c ; OLED_Showgyro + 172
        0x0000150c:    2001        .       MOVS     r0,#1
        0x0000150e:    230c        .#      MOVS     r3,#0xc
        0x00001510:    a21c        ..      ADR      r2,{pc}+0x74 ; 0x1584
        0x00001512:    210f        .!      MOVS     r1,#0xf
        0x00001514:    9000        ..      STR      r0,[sp,#0]
        0x00001516:    2040        @       MOVS     r0,#0x40
        0x00001518:    f7ffff94    ....    BL       OLED_ShowString ; 0x1444
        0x0000151c:    4818        .H      LDR      r0,[pc,#96] ; [0x1580] = 0x2000003c
        0x0000151e:    6800        .h      LDR      r0,[r0,#0]
        0x00001520:    f7feffc8    ....    BL       __aeabi_f2uiz ; 0x4b4
        0x00001524:    4604        .F      MOV      r4,r0
        0x00001526:    2001        .       MOVS     r0,#1
        0x00001528:    210c        .!      MOVS     r1,#0xc
        0x0000152a:    2303        .#      MOVS     r3,#3
        0x0000152c:    4622        "F      MOV      r2,r4
        0x0000152e:    9100        ..      STR      r1,[sp,#0]
        0x00001530:    9001        ..      STR      r0,[sp,#4]
        0x00001532:    210f        .!      MOVS     r1,#0xf
        0x00001534:    2054        T       MOVS     r0,#0x54
        0x00001536:    f7ffff1d    ....    BL       OLED_ShowNum ; 0x1374
        0x0000153a:    e01a        ..      B        0x1572 ; OLED_Showgyro + 226
        0x0000153c:    2001        .       MOVS     r0,#1
        0x0000153e:    230c        .#      MOVS     r3,#0xc
        0x00001540:    a211        ..      ADR      r2,{pc}+0x48 ; 0x1588
        0x00001542:    210f        .!      MOVS     r1,#0xf
        0x00001544:    9000        ..      STR      r0,[sp,#0]
        0x00001546:    2040        @       MOVS     r0,#0x40
        0x00001548:    f7ffff7c    ..|.    BL       OLED_ShowString ; 0x1444
        0x0000154c:    480c        .H      LDR      r0,[pc,#48] ; [0x1580] = 0x2000003c
        0x0000154e:    6800        .h      LDR      r0,[r0,#0]
        0x00001550:    2101        .!      MOVS     r1,#1
        0x00001552:    07c9        ..      LSLS     r1,r1,#31
        0x00001554:    4048        H@      EORS     r0,r0,r1
        0x00001556:    4605        .F      MOV      r5,r0
        0x00001558:    f7feffac    ....    BL       __aeabi_f2uiz ; 0x4b4
        0x0000155c:    4604        .F      MOV      r4,r0
        0x0000155e:    2001        .       MOVS     r0,#1
        0x00001560:    210c        .!      MOVS     r1,#0xc
        0x00001562:    2303        .#      MOVS     r3,#3
        0x00001564:    4622        "F      MOV      r2,r4
        0x00001566:    9100        ..      STR      r1,[sp,#0]
        0x00001568:    9001        ..      STR      r0,[sp,#4]
        0x0000156a:    210f        .!      MOVS     r1,#0xf
        0x0000156c:    2054        T       MOVS     r0,#0x54
        0x0000156e:    f7ffff01    ....    BL       OLED_ShowNum ; 0x1374
        0x00001572:    bd7c        |.      POP      {r2-r6,pc}
    $d
        0x00001574:    20000040    @..     DCD    536870976
        0x00001578:    002b3a50    P:+.    DCD    2832976
        0x0000157c:    002d3a50    P:-.    DCD    2964048
        0x00001580:    2000003c    <..     DCD    536870972
        0x00001584:    002b3a52    R:+.    DCD    2832978
        0x00001588:    002d3a52    R:-.    DCD    2964050
    $t
    i.OLED_WR_Byte
    OLED_WR_Byte
        0x0000158c:    b570        p.      PUSH     {r4-r6,lr}
        0x0000158e:    4604        .F      MOV      r4,r0
        0x00001590:    460e        .F      MOV      r6,r1
        0x00001592:    2e00        ..      CMP      r6,#0
        0x00001594:    d004        ..      BEQ      0x15a0 ; OLED_WR_Byte + 20
        0x00001596:    2108        .!      MOVS     r1,#8
        0x00001598:    06c8        ..      LSLS     r0,r1,#27
        0x0000159a:    f7fffaf2    ....    BL       GPIO_SetOutput ; 0xb82
        0x0000159e:    e003        ..      B        0x15a8 ; OLED_WR_Byte + 28
        0x000015a0:    2108        .!      MOVS     r1,#8
        0x000015a2:    06c8        ..      LSLS     r0,r1,#27
        0x000015a4:    f7fffaa2    ....    BL       GPIO_ClrOutput ; 0xaec
        0x000015a8:    2110        .!      MOVS     r1,#0x10
        0x000015aa:    0688        ..      LSLS     r0,r1,#26
        0x000015ac:    f7fffa9e    ....    BL       GPIO_ClrOutput ; 0xaec
        0x000015b0:    2500        .%      MOVS     r5,#0
        0x000015b2:    e018        ..      B        0x15e6 ; OLED_WR_Byte + 90
        0x000015b4:    2101        .!      MOVS     r1,#1
        0x000015b6:    0788        ..      LSLS     r0,r1,#30
        0x000015b8:    f7fffa98    ....    BL       GPIO_ClrOutput ; 0xaec
        0x000015bc:    2080        .       MOVS     r0,#0x80
        0x000015be:    4020         @      ANDS     r0,r0,r4
        0x000015c0:    2800        .(      CMP      r0,#0
        0x000015c2:    d004        ..      BEQ      0x15ce ; OLED_WR_Byte + 66
        0x000015c4:    2102        .!      MOVS     r1,#2
        0x000015c6:    0748        H.      LSLS     r0,r1,#29
        0x000015c8:    f7fffadb    ....    BL       GPIO_SetOutput ; 0xb82
        0x000015cc:    e003        ..      B        0x15d6 ; OLED_WR_Byte + 74
        0x000015ce:    2102        .!      MOVS     r1,#2
        0x000015d0:    0748        H.      LSLS     r0,r1,#29
        0x000015d2:    f7fffa8b    ....    BL       GPIO_ClrOutput ; 0xaec
        0x000015d6:    2101        .!      MOVS     r1,#1
        0x000015d8:    0788        ..      LSLS     r0,r1,#30
        0x000015da:    f7fffad2    ....    BL       GPIO_SetOutput ; 0xb82
        0x000015de:    0660        `.      LSLS     r0,r4,#25
        0x000015e0:    0e04        ..      LSRS     r4,r0,#24
        0x000015e2:    1c68        h.      ADDS     r0,r5,#1
        0x000015e4:    b2c5        ..      UXTB     r5,r0
        0x000015e6:    2d08        .-      CMP      r5,#8
        0x000015e8:    dbe4        ..      BLT      0x15b4 ; OLED_WR_Byte + 40
        0x000015ea:    2110        .!      MOVS     r1,#0x10
        0x000015ec:    0688        ..      LSLS     r0,r1,#26
        0x000015ee:    f7fffac8    ....    BL       GPIO_SetOutput ; 0xb82
        0x000015f2:    2108        .!      MOVS     r1,#8
        0x000015f4:    06c8        ..      LSLS     r0,r1,#27
        0x000015f6:    f7fffac4    ....    BL       GPIO_SetOutput ; 0xb82
        0x000015fa:    bd70        p.      POP      {r4-r6,pc}
    i.PS2_AnologData
    PS2_AnologData
        0x000015fc:    4601        .F      MOV      r1,r0
        0x000015fe:    4801        .H      LDR      r0,[pc,#4] ; [0x1604] = 0x20000080
        0x00001600:    5c40        @\      LDRB     r0,[r0,r1]
        0x00001602:    4770        pG      BX       lr
    $d
        0x00001604:    20000080    ...     DCD    536871040
    $t
    i.PS2_ClearData
    PS2_ClearData
        0x00001608:    2000        .       MOVS     r0,#0
        0x0000160a:    e004        ..      B        0x1616 ; PS2_ClearData + 14
        0x0000160c:    2100        .!      MOVS     r1,#0
        0x0000160e:    4a03        .J      LDR      r2,[pc,#12] ; [0x161c] = 0x20000080
        0x00001610:    5411        .T      STRB     r1,[r2,r0]
        0x00001612:    1c41        A.      ADDS     r1,r0,#1
        0x00001614:    b2c8        ..      UXTB     r0,r1
        0x00001616:    2809        .(      CMP      r0,#9
        0x00001618:    dbf8        ..      BLT      0x160c ; PS2_ClearData + 4
        0x0000161a:    4770        pG      BX       lr
    $d
        0x0000161c:    20000080    ...     DCD    536871040
    $t
    i.PS2_Cmd
    PS2_Cmd
        0x00001620:    b538        8.      PUSH     {r3-r5,lr}
        0x00001622:    4604        .F      MOV      r4,r0
        0x00001624:    2101        .!      MOVS     r1,#1
        0x00001626:    9100        ..      STR      r1,[sp,#0]
        0x00001628:    2000        .       MOVS     r0,#0
        0x0000162a:    4922        "I      LDR      r1,[pc,#136] ; [0x16b4] = 0x20000080
        0x0000162c:    7048        Hp      STRB     r0,[r1,#1]
        0x0000162e:    2101        .!      MOVS     r1,#1
        0x00001630:    9100        ..      STR      r1,[sp,#0]
        0x00001632:    e036        6.      B        0x16a2 ; PS2_Cmd + 130
        0x00001634:    4668        hF      MOV      r0,sp
        0x00001636:    8800        ..      LDRH     r0,[r0,#0]
        0x00001638:    4020         @      ANDS     r0,r0,r4
        0x0000163a:    2800        .(      CMP      r0,#0
        0x0000163c:    d005        ..      BEQ      0x164a ; PS2_Cmd + 42
        0x0000163e:    2101        .!      MOVS     r1,#1
        0x00001640:    0249        I.      LSLS     r1,r1,#9
        0x00001642:    481d        .H      LDR      r0,[pc,#116] ; [0x16b8] = 0x40001000
        0x00001644:    f7fffa9d    ....    BL       GPIO_SetOutput ; 0xb82
        0x00001648:    e004        ..      B        0x1654 ; PS2_Cmd + 52
        0x0000164a:    2101        .!      MOVS     r1,#1
        0x0000164c:    0249        I.      LSLS     r1,r1,#9
        0x0000164e:    481a        .H      LDR      r0,[pc,#104] ; [0x16b8] = 0x40001000
        0x00001650:    f7fffa4c    ..L.    BL       GPIO_ClrOutput ; 0xaec
        0x00001654:    2101        .!      MOVS     r1,#1
        0x00001656:    02c9        ..      LSLS     r1,r1,#11
        0x00001658:    4817        .H      LDR      r0,[pc,#92] ; [0x16b8] = 0x40001000
        0x0000165a:    f7fffa92    ....    BL       GPIO_SetOutput ; 0xb82
        0x0000165e:    2005        .       MOVS     r0,#5
        0x00001660:    f000fe0a    ....    BL       delay_us ; 0x2278
        0x00001664:    2101        .!      MOVS     r1,#1
        0x00001666:    02c9        ..      LSLS     r1,r1,#11
        0x00001668:    4813        .H      LDR      r0,[pc,#76] ; [0x16b8] = 0x40001000
        0x0000166a:    f7fffa3f    ..?.    BL       GPIO_ClrOutput ; 0xaec
        0x0000166e:    2005        .       MOVS     r0,#5
        0x00001670:    f000fe02    ....    BL       delay_us ; 0x2278
        0x00001674:    2101        .!      MOVS     r1,#1
        0x00001676:    02c9        ..      LSLS     r1,r1,#11
        0x00001678:    480f        .H      LDR      r0,[pc,#60] ; [0x16b8] = 0x40001000
        0x0000167a:    f7fffa82    ....    BL       GPIO_SetOutput ; 0xb82
        0x0000167e:    480e        .H      LDR      r0,[pc,#56] ; [0x16b8] = 0x40001000
        0x00001680:    6800        .h      LDR      r0,[r0,#0]
        0x00001682:    05c0        ..      LSLS     r0,r0,#23
        0x00001684:    0fc0        ..      LSRS     r0,r0,#31
        0x00001686:    2800        .(      CMP      r0,#0
        0x00001688:    d006        ..      BEQ      0x1698 ; PS2_Cmd + 120
        0x0000168a:    480a        .H      LDR      r0,[pc,#40] ; [0x16b4] = 0x20000080
        0x0000168c:    7840        @x      LDRB     r0,[r0,#1]
        0x0000168e:    4669        iF      MOV      r1,sp
        0x00001690:    8809        ..      LDRH     r1,[r1,#0]
        0x00001692:    4308        .C      ORRS     r0,r0,r1
        0x00001694:    4907        .I      LDR      r1,[pc,#28] ; [0x16b4] = 0x20000080
        0x00001696:    7048        Hp      STRB     r0,[r1,#1]
        0x00001698:    4668        hF      MOV      r0,sp
        0x0000169a:    8800        ..      LDRH     r0,[r0,#0]
        0x0000169c:    0440        @.      LSLS     r0,r0,#17
        0x0000169e:    0c01        ..      LSRS     r1,r0,#16
        0x000016a0:    9100        ..      STR      r1,[sp,#0]
        0x000016a2:    4668        hF      MOV      r0,sp
        0x000016a4:    8800        ..      LDRH     r0,[r0,#0]
        0x000016a6:    28ff        .(      CMP      r0,#0xff
        0x000016a8:    ddc4        ..      BLE      0x1634 ; PS2_Cmd + 20
        0x000016aa:    2010        .       MOVS     r0,#0x10
        0x000016ac:    f000fde4    ....    BL       delay_us ; 0x2278
        0x000016b0:    bd38        8.      POP      {r3-r5,pc}
    $d
        0x000016b2:    0000        ..      DCW    0
        0x000016b4:    20000080    ...     DCD    536871040
        0x000016b8:    40001000    ...@    DCD    1073745920
    $t
    i.PS2_DataKey
    PS2_DataKey
        0x000016bc:    b510        ..      PUSH     {r4,lr}
        0x000016be:    f7ffffa3    ....    BL       PS2_ClearData ; 0x1608
        0x000016c2:    f000f893    ....    BL       PS2_ReadData ; 0x17ec
        0x000016c6:    480f        .H      LDR      r0,[pc,#60] ; [0x1704] = 0x20000080
        0x000016c8:    7900        .y      LDRB     r0,[r0,#4]
        0x000016ca:    0200        ..      LSLS     r0,r0,#8
        0x000016cc:    490d        .I      LDR      r1,[pc,#52] ; [0x1704] = 0x20000080
        0x000016ce:    78c9        .x      LDRB     r1,[r1,#3]
        0x000016d0:    4308        .C      ORRS     r0,r0,r1
        0x000016d2:    490d        .I      LDR      r1,[pc,#52] ; [0x1708] = 0x20000008
        0x000016d4:    8008        ..      STRH     r0,[r1,#0]
        0x000016d6:    2400        .$      MOVS     r4,#0
        0x000016d8:    e00f        ..      B        0x16fa ; PS2_DataKey + 62
        0x000016da:    0060        `.      LSLS     r0,r4,#1
        0x000016dc:    490b        .I      LDR      r1,[pc,#44] ; [0x170c] = 0x2000000c
        0x000016de:    5c09        .\      LDRB     r1,[r1,r0]
        0x000016e0:    1e49        I.      SUBS     r1,r1,#1
        0x000016e2:    2001        .       MOVS     r0,#1
        0x000016e4:    4088        .@      LSLS     r0,r0,r1
        0x000016e6:    4908        .I      LDR      r1,[pc,#32] ; [0x1708] = 0x20000008
        0x000016e8:    8809        ..      LDRH     r1,[r1,#0]
        0x000016ea:    4008        .@      ANDS     r0,r0,r1
        0x000016ec:    2800        .(      CMP      r0,#0
        0x000016ee:    d102        ..      BNE      0x16f6 ; PS2_DataKey + 58
        0x000016f0:    1c60        `.      ADDS     r0,r4,#1
        0x000016f2:    b2c0        ..      UXTB     r0,r0
        0x000016f4:    bd10        ..      POP      {r4,pc}
        0x000016f6:    1c60        `.      ADDS     r0,r4,#1
        0x000016f8:    b2c4        ..      UXTB     r4,r0
        0x000016fa:    2c10        .,      CMP      r4,#0x10
        0x000016fc:    dbed        ..      BLT      0x16da ; PS2_DataKey + 30
        0x000016fe:    2000        .       MOVS     r0,#0
        0x00001700:    e7f8        ..      B        0x16f4 ; PS2_DataKey + 56
    $d
        0x00001702:    0000        ..      DCW    0
        0x00001704:    20000080    ...     DCD    536871040
        0x00001708:    20000008    ...     DCD    536870920
        0x0000170c:    2000000c    ...     DCD    536870924
    $t
    i.PS2_EnterConfing
    PS2_EnterConfing
        0x00001710:    b510        ..      PUSH     {r4,lr}
        0x00001712:    2101        .!      MOVS     r1,#1
        0x00001714:    0289        ..      LSLS     r1,r1,#10
        0x00001716:    4815        .H      LDR      r0,[pc,#84] ; [0x176c] = 0x40001000
        0x00001718:    f7fff9e8    ....    BL       GPIO_ClrOutput ; 0xaec
        0x0000171c:    2010        .       MOVS     r0,#0x10
        0x0000171e:    f000fdab    ....    BL       delay_us ; 0x2278
        0x00001722:    2001        .       MOVS     r0,#1
        0x00001724:    f7ffff7c    ..|.    BL       PS2_Cmd ; 0x1620
        0x00001728:    2043        C       MOVS     r0,#0x43
        0x0000172a:    f7ffff79    ..y.    BL       PS2_Cmd ; 0x1620
        0x0000172e:    2000        .       MOVS     r0,#0
        0x00001730:    f7ffff76    ..v.    BL       PS2_Cmd ; 0x1620
        0x00001734:    2001        .       MOVS     r0,#1
        0x00001736:    f7ffff73    ..s.    BL       PS2_Cmd ; 0x1620
        0x0000173a:    2000        .       MOVS     r0,#0
        0x0000173c:    f7ffff70    ..p.    BL       PS2_Cmd ; 0x1620
        0x00001740:    2000        .       MOVS     r0,#0
        0x00001742:    f7ffff6d    ..m.    BL       PS2_Cmd ; 0x1620
        0x00001746:    2000        .       MOVS     r0,#0
        0x00001748:    f7ffff6a    ..j.    BL       PS2_Cmd ; 0x1620
        0x0000174c:    2000        .       MOVS     r0,#0
        0x0000174e:    f7ffff67    ..g.    BL       PS2_Cmd ; 0x1620
        0x00001752:    2000        .       MOVS     r0,#0
        0x00001754:    f7ffff64    ..d.    BL       PS2_Cmd ; 0x1620
        0x00001758:    2101        .!      MOVS     r1,#1
        0x0000175a:    0289        ..      LSLS     r1,r1,#10
        0x0000175c:    4803        .H      LDR      r0,[pc,#12] ; [0x176c] = 0x40001000
        0x0000175e:    f7fffa10    ....    BL       GPIO_SetOutput ; 0xb82
        0x00001762:    2010        .       MOVS     r0,#0x10
        0x00001764:    f000fd88    ....    BL       delay_us ; 0x2278
        0x00001768:    bd10        ..      POP      {r4,pc}
    $d
        0x0000176a:    0000        ..      DCW    0
        0x0000176c:    40001000    ...@    DCD    1073745920
    $t
    i.PS2_ExitConfing
    PS2_ExitConfing
        0x00001770:    b510        ..      PUSH     {r4,lr}
        0x00001772:    2101        .!      MOVS     r1,#1
        0x00001774:    0289        ..      LSLS     r1,r1,#10
        0x00001776:    4815        .H      LDR      r0,[pc,#84] ; [0x17cc] = 0x40001000
        0x00001778:    f7fff9b8    ....    BL       GPIO_ClrOutput ; 0xaec
        0x0000177c:    2010        .       MOVS     r0,#0x10
        0x0000177e:    f000fd7b    ..{.    BL       delay_us ; 0x2278
        0x00001782:    2001        .       MOVS     r0,#1
        0x00001784:    f7ffff4c    ..L.    BL       PS2_Cmd ; 0x1620
        0x00001788:    2043        C       MOVS     r0,#0x43
        0x0000178a:    f7ffff49    ..I.    BL       PS2_Cmd ; 0x1620
        0x0000178e:    2000        .       MOVS     r0,#0
        0x00001790:    f7ffff46    ..F.    BL       PS2_Cmd ; 0x1620
        0x00001794:    2000        .       MOVS     r0,#0
        0x00001796:    f7ffff43    ..C.    BL       PS2_Cmd ; 0x1620
        0x0000179a:    205a        Z       MOVS     r0,#0x5a
        0x0000179c:    f7ffff40    ..@.    BL       PS2_Cmd ; 0x1620
        0x000017a0:    205a        Z       MOVS     r0,#0x5a
        0x000017a2:    f7ffff3d    ..=.    BL       PS2_Cmd ; 0x1620
        0x000017a6:    205a        Z       MOVS     r0,#0x5a
        0x000017a8:    f7ffff3a    ..:.    BL       PS2_Cmd ; 0x1620
        0x000017ac:    205a        Z       MOVS     r0,#0x5a
        0x000017ae:    f7ffff37    ..7.    BL       PS2_Cmd ; 0x1620
        0x000017b2:    205a        Z       MOVS     r0,#0x5a
        0x000017b4:    f7ffff34    ..4.    BL       PS2_Cmd ; 0x1620
        0x000017b8:    2101        .!      MOVS     r1,#1
        0x000017ba:    0289        ..      LSLS     r1,r1,#10
        0x000017bc:    4803        .H      LDR      r0,[pc,#12] ; [0x17cc] = 0x40001000
        0x000017be:    f7fff9e0    ....    BL       GPIO_SetOutput ; 0xb82
        0x000017c2:    2010        .       MOVS     r0,#0x10
        0x000017c4:    f000fd58    ..X.    BL       delay_us ; 0x2278
        0x000017c8:    bd10        ..      POP      {r4,pc}
    $d
        0x000017ca:    0000        ..      DCW    0
        0x000017cc:    40001000    ...@    DCD    1073745920
    $t
    i.PS2_Init
    PS2_Init
        0x000017d0:    b50e        ..      PUSH     {r1-r3,lr}
        0x000017d2:    2000        .       MOVS     r0,#0
        0x000017d4:    9001        ..      STR      r0,[sp,#4]
        0x000017d6:    9002        ..      STR      r0,[sp,#8]
        0x000017d8:    2007        .       MOVS     r0,#7
        0x000017da:    0240        @.      LSLS     r0,r0,#9
        0x000017dc:    9000        ..      STR      r0,[sp,#0]
        0x000017de:    4669        iF      MOV      r1,sp
        0x000017e0:    4801        .H      LDR      r0,[pc,#4] ; [0x17e8] = 0x40001000
        0x000017e2:    f7fff987    ....    BL       GPIO_Init ; 0xaf4
        0x000017e6:    bd0e        ..      POP      {r1-r3,pc}
    $d
        0x000017e8:    40001000    ...@    DCD    1073745920
    $t
    i.PS2_ReadData
    PS2_ReadData
        0x000017ec:    b51c        ..      PUSH     {r2-r4,lr}
        0x000017ee:    2100        .!      MOVS     r1,#0
        0x000017f0:    9101        ..      STR      r1,[sp,#4]
        0x000017f2:    2101        .!      MOVS     r1,#1
        0x000017f4:    9100        ..      STR      r1,[sp,#0]
        0x000017f6:    0289        ..      LSLS     r1,r1,#10
        0x000017f8:    4828        (H      LDR      r0,[pc,#160] ; [0x189c] = 0x40001000
        0x000017fa:    f7fff977    ..w.    BL       GPIO_ClrOutput ; 0xaec
        0x000017fe:    4928        (I      LDR      r1,[pc,#160] ; [0x18a0] = 0x2000000a
        0x00001800:    7808        .x      LDRB     r0,[r1,#0]
        0x00001802:    f7ffff0d    ....    BL       PS2_Cmd ; 0x1620
        0x00001806:    4926        &I      LDR      r1,[pc,#152] ; [0x18a0] = 0x2000000a
        0x00001808:    7848        Hx      LDRB     r0,[r1,#1]
        0x0000180a:    f7ffff09    ....    BL       PS2_Cmd ; 0x1620
        0x0000180e:    2102        .!      MOVS     r1,#2
        0x00001810:    9101        ..      STR      r1,[sp,#4]
        0x00001812:    e039        9.      B        0x1888 ; PS2_ReadData + 156
        0x00001814:    2001        .       MOVS     r0,#1
        0x00001816:    9000        ..      STR      r0,[sp,#0]
        0x00001818:    e02a        *.      B        0x1870 ; PS2_ReadData + 132
        0x0000181a:    2101        .!      MOVS     r1,#1
        0x0000181c:    02c9        ..      LSLS     r1,r1,#11
        0x0000181e:    481f        .H      LDR      r0,[pc,#124] ; [0x189c] = 0x40001000
        0x00001820:    f7fff9af    ....    BL       GPIO_SetOutput ; 0xb82
        0x00001824:    2005        .       MOVS     r0,#5
        0x00001826:    f000fd27    ..'.    BL       delay_us ; 0x2278
        0x0000182a:    2101        .!      MOVS     r1,#1
        0x0000182c:    02c9        ..      LSLS     r1,r1,#11
        0x0000182e:    481b        .H      LDR      r0,[pc,#108] ; [0x189c] = 0x40001000
        0x00001830:    f7fff95c    ..\.    BL       GPIO_ClrOutput ; 0xaec
        0x00001834:    2005        .       MOVS     r0,#5
        0x00001836:    f000fd1f    ....    BL       delay_us ; 0x2278
        0x0000183a:    2101        .!      MOVS     r1,#1
        0x0000183c:    02c9        ..      LSLS     r1,r1,#11
        0x0000183e:    4817        .H      LDR      r0,[pc,#92] ; [0x189c] = 0x40001000
        0x00001840:    f7fff99f    ....    BL       GPIO_SetOutput ; 0xb82
        0x00001844:    4815        .H      LDR      r0,[pc,#84] ; [0x189c] = 0x40001000
        0x00001846:    6800        .h      LDR      r0,[r0,#0]
        0x00001848:    05c0        ..      LSLS     r0,r0,#23
        0x0000184a:    0fc0        ..      LSRS     r0,r0,#31
        0x0000184c:    2800        .(      CMP      r0,#0
        0x0000184e:    d00a        ..      BEQ      0x1866 ; PS2_ReadData + 122
        0x00001850:    4914        .I      LDR      r1,[pc,#80] ; [0x18a4] = 0x20000080
        0x00001852:    4668        hF      MOV      r0,sp
        0x00001854:    7900        .y      LDRB     r0,[r0,#4]
        0x00001856:    5c09        .\      LDRB     r1,[r1,r0]
        0x00001858:    4668        hF      MOV      r0,sp
        0x0000185a:    8800        ..      LDRH     r0,[r0,#0]
        0x0000185c:    4301        .C      ORRS     r1,r1,r0
        0x0000185e:    4a11        .J      LDR      r2,[pc,#68] ; [0x18a4] = 0x20000080
        0x00001860:    4668        hF      MOV      r0,sp
        0x00001862:    7900        .y      LDRB     r0,[r0,#4]
        0x00001864:    5411        .T      STRB     r1,[r2,r0]
        0x00001866:    4668        hF      MOV      r0,sp
        0x00001868:    8800        ..      LDRH     r0,[r0,#0]
        0x0000186a:    0440        @.      LSLS     r0,r0,#17
        0x0000186c:    0c01        ..      LSRS     r1,r0,#16
        0x0000186e:    9100        ..      STR      r1,[sp,#0]
        0x00001870:    4668        hF      MOV      r0,sp
        0x00001872:    8800        ..      LDRH     r0,[r0,#0]
        0x00001874:    28ff        .(      CMP      r0,#0xff
        0x00001876:    ddd0        ..      BLE      0x181a ; PS2_ReadData + 46
        0x00001878:    2010        .       MOVS     r0,#0x10
        0x0000187a:    f000fcfd    ....    BL       delay_us ; 0x2278
        0x0000187e:    4668        hF      MOV      r0,sp
        0x00001880:    7900        .y      LDRB     r0,[r0,#4]
        0x00001882:    1c40        @.      ADDS     r0,r0,#1
        0x00001884:    b2c1        ..      UXTB     r1,r0
        0x00001886:    9101        ..      STR      r1,[sp,#4]
        0x00001888:    4668        hF      MOV      r0,sp
        0x0000188a:    7900        .y      LDRB     r0,[r0,#4]
        0x0000188c:    2809        .(      CMP      r0,#9
        0x0000188e:    dbc1        ..      BLT      0x1814 ; PS2_ReadData + 40
        0x00001890:    2101        .!      MOVS     r1,#1
        0x00001892:    0289        ..      LSLS     r1,r1,#10
        0x00001894:    4801        .H      LDR      r0,[pc,#4] ; [0x189c] = 0x40001000
        0x00001896:    f7fff974    ..t.    BL       GPIO_SetOutput ; 0xb82
        0x0000189a:    bd1c        ..      POP      {r2-r4,pc}
    $d
        0x0000189c:    40001000    ...@    DCD    1073745920
        0x000018a0:    2000000a    ...     DCD    536870922
        0x000018a4:    20000080    ...     DCD    536871040
    $t
    i.PS2_SetInit
    PS2_SetInit
        0x000018a8:    b510        ..      PUSH     {r4,lr}
        0x000018aa:    f000f80b    ....    BL       PS2_ShortPoll ; 0x18c4
        0x000018ae:    f000f809    ....    BL       PS2_ShortPoll ; 0x18c4
        0x000018b2:    f000f807    ....    BL       PS2_ShortPoll ; 0x18c4
        0x000018b6:    f7ffff2b    ..+.    BL       PS2_EnterConfing ; 0x1710
        0x000018ba:    f000f827    ..'.    BL       PS2_TurnOnAnalogMode ; 0x190c
        0x000018be:    f7ffff57    ..W.    BL       PS2_ExitConfing ; 0x1770
        0x000018c2:    bd10        ..      POP      {r4,pc}
    i.PS2_ShortPoll
    PS2_ShortPoll
        0x000018c4:    b510        ..      PUSH     {r4,lr}
        0x000018c6:    2101        .!      MOVS     r1,#1
        0x000018c8:    0289        ..      LSLS     r1,r1,#10
        0x000018ca:    480f        .H      LDR      r0,[pc,#60] ; [0x1908] = 0x40001000
        0x000018cc:    f7fff90e    ....    BL       GPIO_ClrOutput ; 0xaec
        0x000018d0:    2010        .       MOVS     r0,#0x10
        0x000018d2:    f000fcd1    ....    BL       delay_us ; 0x2278
        0x000018d6:    2001        .       MOVS     r0,#1
        0x000018d8:    f7fffea2    ....    BL       PS2_Cmd ; 0x1620
        0x000018dc:    2042        B       MOVS     r0,#0x42
        0x000018de:    f7fffe9f    ....    BL       PS2_Cmd ; 0x1620
        0x000018e2:    2000        .       MOVS     r0,#0
        0x000018e4:    f7fffe9c    ....    BL       PS2_Cmd ; 0x1620
        0x000018e8:    2000        .       MOVS     r0,#0
        0x000018ea:    f7fffe99    ....    BL       PS2_Cmd ; 0x1620
        0x000018ee:    2000        .       MOVS     r0,#0
        0x000018f0:    f7fffe96    ....    BL       PS2_Cmd ; 0x1620
        0x000018f4:    2101        .!      MOVS     r1,#1
        0x000018f6:    0289        ..      LSLS     r1,r1,#10
        0x000018f8:    4803        .H      LDR      r0,[pc,#12] ; [0x1908] = 0x40001000
        0x000018fa:    f7fff942    ..B.    BL       GPIO_SetOutput ; 0xb82
        0x000018fe:    2010        .       MOVS     r0,#0x10
        0x00001900:    f000fcba    ....    BL       delay_us ; 0x2278
        0x00001904:    bd10        ..      POP      {r4,pc}
    $d
        0x00001906:    0000        ..      DCW    0
        0x00001908:    40001000    ...@    DCD    1073745920
    $t
    i.PS2_TurnOnAnalogMode
    PS2_TurnOnAnalogMode
        0x0000190c:    b510        ..      PUSH     {r4,lr}
        0x0000190e:    2101        .!      MOVS     r1,#1
        0x00001910:    0289        ..      LSLS     r1,r1,#10
        0x00001912:    4813        .H      LDR      r0,[pc,#76] ; [0x1960] = 0x40001000
        0x00001914:    f7fff8ea    ....    BL       GPIO_ClrOutput ; 0xaec
        0x00001918:    2001        .       MOVS     r0,#1
        0x0000191a:    f7fffe81    ....    BL       PS2_Cmd ; 0x1620
        0x0000191e:    2044        D       MOVS     r0,#0x44
        0x00001920:    f7fffe7e    ..~.    BL       PS2_Cmd ; 0x1620
        0x00001924:    2000        .       MOVS     r0,#0
        0x00001926:    f7fffe7b    ..{.    BL       PS2_Cmd ; 0x1620
        0x0000192a:    2001        .       MOVS     r0,#1
        0x0000192c:    f7fffe78    ..x.    BL       PS2_Cmd ; 0x1620
        0x00001930:    2003        .       MOVS     r0,#3
        0x00001932:    f7fffe75    ..u.    BL       PS2_Cmd ; 0x1620
        0x00001936:    2000        .       MOVS     r0,#0
        0x00001938:    f7fffe72    ..r.    BL       PS2_Cmd ; 0x1620
        0x0000193c:    2000        .       MOVS     r0,#0
        0x0000193e:    f7fffe6f    ..o.    BL       PS2_Cmd ; 0x1620
        0x00001942:    2000        .       MOVS     r0,#0
        0x00001944:    f7fffe6c    ..l.    BL       PS2_Cmd ; 0x1620
        0x00001948:    2000        .       MOVS     r0,#0
        0x0000194a:    f7fffe69    ..i.    BL       PS2_Cmd ; 0x1620
        0x0000194e:    2101        .!      MOVS     r1,#1
        0x00001950:    0289        ..      LSLS     r1,r1,#10
        0x00001952:    4803        .H      LDR      r0,[pc,#12] ; [0x1960] = 0x40001000
        0x00001954:    f7fff915    ....    BL       GPIO_SetOutput ; 0xb82
        0x00001958:    2010        .       MOVS     r0,#0x10
        0x0000195a:    f000fc8d    ....    BL       delay_us ; 0x2278
        0x0000195e:    bd10        ..      POP      {r4,pc}
    $d
        0x00001960:    40001000    ...@    DCD    1073745920
    $t
    i.SG90_Init
    SG90_Init
        0x00001964:    2001        .       MOVS     r0,#1
        0x00001966:    4902        .I      LDR      r1,[pc,#8] ; [0x1970] = 0x4000a000
        0x00001968:    6048        H`      STR      r0,[r1,#4]
        0x0000196a:    2000        .       MOVS     r0,#0
        0x0000196c:    6008        .`      STR      r0,[r1,#0]
        0x0000196e:    4770        pG      BX       lr
    $d
        0x00001970:    4000a000    ...@    DCD    1073782784
    $t
    i.SPTIMER0Handler
    SPTIMER0Handler
        0x00001974:    b510        ..      PUSH     {r4,lr}
        0x00001976:    2007        .       MOVS     r0,#7
        0x00001978:    f7fffe40    ..@.    BL       PS2_AnologData ; 0x15fc
        0x0000197c:    490b        .I      LDR      r1,[pc,#44] ; [0x19ac] = 0x20000060
        0x0000197e:    6008        .`      STR      r0,[r1,#0]
        0x00001980:    2008        .       MOVS     r0,#8
        0x00001982:    f7fffe3b    ..;.    BL       PS2_AnologData ; 0x15fc
        0x00001986:    490a        .I      LDR      r1,[pc,#40] ; [0x19b0] = 0x20000064
        0x00001988:    6008        .`      STR      r0,[r1,#0]
        0x0000198a:    2005        .       MOVS     r0,#5
        0x0000198c:    f7fffe36    ..6.    BL       PS2_AnologData ; 0x15fc
        0x00001990:    4908        .I      LDR      r1,[pc,#32] ; [0x19b4] = 0x20000068
        0x00001992:    6008        .`      STR      r0,[r1,#0]
        0x00001994:    2006        .       MOVS     r0,#6
        0x00001996:    f7fffe31    ..1.    BL       PS2_AnologData ; 0x15fc
        0x0000199a:    4907        .I      LDR      r1,[pc,#28] ; [0x19b8] = 0x2000006c
        0x0000199c:    6008        .`      STR      r0,[r1,#0]
        0x0000199e:    f7fffe8d    ....    BL       PS2_DataKey ; 0x16bc
        0x000019a2:    4906        .I      LDR      r1,[pc,#24] ; [0x19bc] = 0x2000005c
        0x000019a4:    6008        .`      STR      r0,[r1,#0]
        0x000019a6:    f7fffa4b    ..K.    BL       GetAngle ; 0xe40
        0x000019aa:    bd10        ..      POP      {r4,pc}
    $d
        0x000019ac:    20000060    `..     DCD    536871008
        0x000019b0:    20000064    d..     DCD    536871012
        0x000019b4:    20000068    h..     DCD    536871016
        0x000019b8:    2000006c    l..     DCD    536871020
        0x000019bc:    2000005c    \..     DCD    536871004
    $t
    i.SPTIMER1Handler
    SPTIMER1Handler
        0x000019c0:    b510        ..      PUSH     {r4,lr}
        0x000019c2:    48fe        .H      LDR      r0,[pc,#1016] ; [0x1dbc] = 0x2000005c
        0x000019c4:    6800        .h      LDR      r0,[r0,#0]
        0x000019c6:    2805        .(      CMP      r0,#5
        0x000019c8:    d152        R.      BNE      0x1a70 ; SPTIMER1Handler + 176
        0x000019ca:    48fc        .H      LDR      r0,[pc,#1008] ; [0x1dbc] = 0x2000005c
        0x000019cc:    6800        .h      LDR      r0,[r0,#0]
        0x000019ce:    2805        .(      CMP      r0,#5
        0x000019d0:    d151        Q.      BNE      0x1a76 ; SPTIMER1Handler + 182
        0x000019d2:    48fb        .H      LDR      r0,[pc,#1004] ; [0x1dc0] = 0x20000070
        0x000019d4:    7800        .x      LDRB     r0,[r0,#0]
        0x000019d6:    2800        .(      CMP      r0,#0
        0x000019d8:    d14d        M.      BNE      0x1a76 ; SPTIMER1Handler + 182
        0x000019da:    2001        .       MOVS     r0,#1
        0x000019dc:    49f8        .I      LDR      r1,[pc,#992] ; [0x1dc0] = 0x20000070
        0x000019de:    7008        .p      STRB     r0,[r1,#0]
        0x000019e0:    f7fffaa0    ....    BL       GetGameState ; 0xf24
        0x000019e4:    2810        .(      CMP      r0,#0x10
        0x000019e6:    d11f        ..      BNE      0x1a28 ; SPTIMER1Handler + 104
        0x000019e8:    f7fffaae    ....    BL       GetPauseMode ; 0xf48
        0x000019ec:    2800        .(      CMP      r0,#0
        0x000019ee:    d107        ..      BNE      0x1a00 ; SPTIMER1Handler + 64
        0x000019f0:    2101        .!      MOVS     r1,#1
        0x000019f2:    2013        .       MOVS     r0,#0x13
        0x000019f4:    f000fd24    ..$.    BL       mp3_send_cmd ; 0x2440
        0x000019f8:    2002        .       MOVS     r0,#2
        0x000019fa:    f000fa63    ..c.    BL       SetPauseMode ; 0x1ec4
        0x000019fe:    e03a        :.      B        0x1a76 ; SPTIMER1Handler + 182
        0x00001a00:    f7fffaa2    ....    BL       GetPauseMode ; 0xf48
        0x00001a04:    2801        .(      CMP      r0,#1
        0x00001a06:    d107        ..      BNE      0x1a18 ; SPTIMER1Handler + 88
        0x00001a08:    2101        .!      MOVS     r1,#1
        0x00001a0a:    2013        .       MOVS     r0,#0x13
        0x00001a0c:    f000fd18    ....    BL       mp3_send_cmd ; 0x2440
        0x00001a10:    2000        .       MOVS     r0,#0
        0x00001a12:    f000fa57    ..W.    BL       SetPauseMode ; 0x1ec4
        0x00001a16:    e02e        ..      B        0x1a76 ; SPTIMER1Handler + 182
        0x00001a18:    2101        .!      MOVS     r1,#1
        0x00001a1a:    2013        .       MOVS     r0,#0x13
        0x00001a1c:    f000fd10    ....    BL       mp3_send_cmd ; 0x2440
        0x00001a20:    2001        .       MOVS     r0,#1
        0x00001a22:    f000fa4f    ..O.    BL       SetPauseMode ; 0x1ec4
        0x00001a26:    e026        &.      B        0x1a76 ; SPTIMER1Handler + 182
        0x00001a28:    f7fffa7c    ..|.    BL       GetGameState ; 0xf24
        0x00001a2c:    2801        .(      CMP      r0,#1
        0x00001a2e:    d122        ".      BNE      0x1a76 ; SPTIMER1Handler + 182
        0x00001a30:    f7fffa72    ..r.    BL       GetGameMode ; 0xf18
        0x00001a34:    2800        .(      CMP      r0,#0
        0x00001a36:    d107        ..      BNE      0x1a48 ; SPTIMER1Handler + 136
        0x00001a38:    2101        .!      MOVS     r1,#1
        0x00001a3a:    2013        .       MOVS     r0,#0x13
        0x00001a3c:    f000fd00    ....    BL       mp3_send_cmd ; 0x2440
        0x00001a40:    2002        .       MOVS     r0,#2
        0x00001a42:    f000fa33    ..3.    BL       SetGameMode ; 0x1eac
        0x00001a46:    e016        ..      B        0x1a76 ; SPTIMER1Handler + 182
        0x00001a48:    f7fffa66    ..f.    BL       GetGameMode ; 0xf18
        0x00001a4c:    2802        .(      CMP      r0,#2
        0x00001a4e:    d107        ..      BNE      0x1a60 ; SPTIMER1Handler + 160
        0x00001a50:    2101        .!      MOVS     r1,#1
        0x00001a52:    2013        .       MOVS     r0,#0x13
        0x00001a54:    f000fcf4    ....    BL       mp3_send_cmd ; 0x2440
        0x00001a58:    2001        .       MOVS     r0,#1
        0x00001a5a:    f000fa27    ..'.    BL       SetGameMode ; 0x1eac
        0x00001a5e:    e00a        ..      B        0x1a76 ; SPTIMER1Handler + 182
        0x00001a60:    2101        .!      MOVS     r1,#1
        0x00001a62:    2013        .       MOVS     r0,#0x13
        0x00001a64:    f000fcec    ....    BL       mp3_send_cmd ; 0x2440
        0x00001a68:    2000        .       MOVS     r0,#0
        0x00001a6a:    f000fa1f    ....    BL       SetGameMode ; 0x1eac
        0x00001a6e:    e002        ..      B        0x1a76 ; SPTIMER1Handler + 182
        0x00001a70:    2000        .       MOVS     r0,#0
        0x00001a72:    49d3        .I      LDR      r1,[pc,#844] ; [0x1dc0] = 0x20000070
        0x00001a74:    7008        .p      STRB     r0,[r1,#0]
        0x00001a76:    48d1        .H      LDR      r0,[pc,#836] ; [0x1dbc] = 0x2000005c
        0x00001a78:    6800        .h      LDR      r0,[r0,#0]
        0x00001a7a:    2807        .(      CMP      r0,#7
        0x00001a7c:    d152        R.      BNE      0x1b24 ; SPTIMER1Handler + 356
        0x00001a7e:    48cf        .H      LDR      r0,[pc,#828] ; [0x1dbc] = 0x2000005c
        0x00001a80:    6800        .h      LDR      r0,[r0,#0]
        0x00001a82:    2807        .(      CMP      r0,#7
        0x00001a84:    d151        Q.      BNE      0x1b2a ; SPTIMER1Handler + 362
        0x00001a86:    48cf        .H      LDR      r0,[pc,#828] ; [0x1dc4] = 0x20000071
        0x00001a88:    7800        .x      LDRB     r0,[r0,#0]
        0x00001a8a:    2800        .(      CMP      r0,#0
        0x00001a8c:    d14d        M.      BNE      0x1b2a ; SPTIMER1Handler + 362
        0x00001a8e:    2001        .       MOVS     r0,#1
        0x00001a90:    49cc        .I      LDR      r1,[pc,#816] ; [0x1dc4] = 0x20000071
        0x00001a92:    7008        .p      STRB     r0,[r1,#0]
        0x00001a94:    f7fffa46    ..F.    BL       GetGameState ; 0xf24
        0x00001a98:    2810        .(      CMP      r0,#0x10
        0x00001a9a:    d11f        ..      BNE      0x1adc ; SPTIMER1Handler + 284
        0x00001a9c:    f7fffa54    ..T.    BL       GetPauseMode ; 0xf48
        0x00001aa0:    2802        .(      CMP      r0,#2
        0x00001aa2:    d107        ..      BNE      0x1ab4 ; SPTIMER1Handler + 244
        0x00001aa4:    2101        .!      MOVS     r1,#1
        0x00001aa6:    2013        .       MOVS     r0,#0x13
        0x00001aa8:    f000fcca    ....    BL       mp3_send_cmd ; 0x2440
        0x00001aac:    2000        .       MOVS     r0,#0
        0x00001aae:    f000fa09    ....    BL       SetPauseMode ; 0x1ec4
        0x00001ab2:    e03a        :.      B        0x1b2a ; SPTIMER1Handler + 362
        0x00001ab4:    f7fffa48    ..H.    BL       GetPauseMode ; 0xf48
        0x00001ab8:    2801        .(      CMP      r0,#1
        0x00001aba:    d107        ..      BNE      0x1acc ; SPTIMER1Handler + 268
        0x00001abc:    2101        .!      MOVS     r1,#1
        0x00001abe:    2013        .       MOVS     r0,#0x13
        0x00001ac0:    f000fcbe    ....    BL       mp3_send_cmd ; 0x2440
        0x00001ac4:    2002        .       MOVS     r0,#2
        0x00001ac6:    f000f9fd    ....    BL       SetPauseMode ; 0x1ec4
        0x00001aca:    e02e        ..      B        0x1b2a ; SPTIMER1Handler + 362
        0x00001acc:    2101        .!      MOVS     r1,#1
        0x00001ace:    2013        .       MOVS     r0,#0x13
        0x00001ad0:    f000fcb6    ....    BL       mp3_send_cmd ; 0x2440
        0x00001ad4:    2001        .       MOVS     r0,#1
        0x00001ad6:    f000f9f5    ....    BL       SetPauseMode ; 0x1ec4
        0x00001ada:    e026        &.      B        0x1b2a ; SPTIMER1Handler + 362
        0x00001adc:    f7fffa22    ..".    BL       GetGameState ; 0xf24
        0x00001ae0:    2801        .(      CMP      r0,#1
        0x00001ae2:    d122        ".      BNE      0x1b2a ; SPTIMER1Handler + 362
        0x00001ae4:    f7fffa18    ....    BL       GetGameMode ; 0xf18
        0x00001ae8:    2802        .(      CMP      r0,#2
        0x00001aea:    d107        ..      BNE      0x1afc ; SPTIMER1Handler + 316
        0x00001aec:    2101        .!      MOVS     r1,#1
        0x00001aee:    2013        .       MOVS     r0,#0x13
        0x00001af0:    f000fca6    ....    BL       mp3_send_cmd ; 0x2440
        0x00001af4:    2000        .       MOVS     r0,#0
        0x00001af6:    f000f9d9    ....    BL       SetGameMode ; 0x1eac
        0x00001afa:    e016        ..      B        0x1b2a ; SPTIMER1Handler + 362
        0x00001afc:    f7fffa0c    ....    BL       GetGameMode ; 0xf18
        0x00001b00:    2800        .(      CMP      r0,#0
        0x00001b02:    d107        ..      BNE      0x1b14 ; SPTIMER1Handler + 340
        0x00001b04:    2101        .!      MOVS     r1,#1
        0x00001b06:    2013        .       MOVS     r0,#0x13
        0x00001b08:    f000fc9a    ....    BL       mp3_send_cmd ; 0x2440
        0x00001b0c:    2001        .       MOVS     r0,#1
        0x00001b0e:    f000f9cd    ....    BL       SetGameMode ; 0x1eac
        0x00001b12:    e00a        ..      B        0x1b2a ; SPTIMER1Handler + 362
        0x00001b14:    2101        .!      MOVS     r1,#1
        0x00001b16:    2013        .       MOVS     r0,#0x13
        0x00001b18:    f000fc92    ....    BL       mp3_send_cmd ; 0x2440
        0x00001b1c:    2002        .       MOVS     r0,#2
        0x00001b1e:    f000f9c5    ....    BL       SetGameMode ; 0x1eac
        0x00001b22:    e002        ..      B        0x1b2a ; SPTIMER1Handler + 362
        0x00001b24:    2000        .       MOVS     r0,#0
        0x00001b26:    49a7        .I      LDR      r1,[pc,#668] ; [0x1dc4] = 0x20000071
        0x00001b28:    7008        .p      STRB     r0,[r1,#0]
        0x00001b2a:    48a4        .H      LDR      r0,[pc,#656] ; [0x1dbc] = 0x2000005c
        0x00001b2c:    6800        .h      LDR      r0,[r0,#0]
        0x00001b2e:    2808        .(      CMP      r0,#8
        0x00001b30:    d10f        ..      BNE      0x1b52 ; SPTIMER1Handler + 402
        0x00001b32:    48a2        .H      LDR      r0,[pc,#648] ; [0x1dbc] = 0x2000005c
        0x00001b34:    6800        .h      LDR      r0,[r0,#0]
        0x00001b36:    2808        .(      CMP      r0,#8
        0x00001b38:    d10e        ..      BNE      0x1b58 ; SPTIMER1Handler + 408
        0x00001b3a:    48a3        .H      LDR      r0,[pc,#652] ; [0x1dc8] = 0x20000072
        0x00001b3c:    7800        .x      LDRB     r0,[r0,#0]
        0x00001b3e:    2800        .(      CMP      r0,#0
        0x00001b40:    d10a        ..      BNE      0x1b58 ; SPTIMER1Handler + 408
        0x00001b42:    2100        .!      MOVS     r1,#0
        0x00001b44:    2005        .       MOVS     r0,#5
        0x00001b46:    f000fc7b    ..{.    BL       mp3_send_cmd ; 0x2440
        0x00001b4a:    2001        .       MOVS     r0,#1
        0x00001b4c:    499e        .I      LDR      r1,[pc,#632] ; [0x1dc8] = 0x20000072
        0x00001b4e:    7008        .p      STRB     r0,[r1,#0]
        0x00001b50:    e002        ..      B        0x1b58 ; SPTIMER1Handler + 408
        0x00001b52:    2000        .       MOVS     r0,#0
        0x00001b54:    499c        .I      LDR      r1,[pc,#624] ; [0x1dc8] = 0x20000072
        0x00001b56:    7008        .p      STRB     r0,[r1,#0]
        0x00001b58:    4898        .H      LDR      r0,[pc,#608] ; [0x1dbc] = 0x2000005c
        0x00001b5a:    6800        .h      LDR      r0,[r0,#0]
        0x00001b5c:    2806        .(      CMP      r0,#6
        0x00001b5e:    d10f        ..      BNE      0x1b80 ; SPTIMER1Handler + 448
        0x00001b60:    4896        .H      LDR      r0,[pc,#600] ; [0x1dbc] = 0x2000005c
        0x00001b62:    6800        .h      LDR      r0,[r0,#0]
        0x00001b64:    2806        .(      CMP      r0,#6
        0x00001b66:    d10e        ..      BNE      0x1b86 ; SPTIMER1Handler + 454
        0x00001b68:    4898        .H      LDR      r0,[pc,#608] ; [0x1dcc] = 0x20000073
        0x00001b6a:    7800        .x      LDRB     r0,[r0,#0]
        0x00001b6c:    2800        .(      CMP      r0,#0
        0x00001b6e:    d10a        ..      BNE      0x1b86 ; SPTIMER1Handler + 454
        0x00001b70:    2100        .!      MOVS     r1,#0
        0x00001b72:    2004        .       MOVS     r0,#4
        0x00001b74:    f000fc64    ..d.    BL       mp3_send_cmd ; 0x2440
        0x00001b78:    2001        .       MOVS     r0,#1
        0x00001b7a:    4994        .I      LDR      r1,[pc,#592] ; [0x1dcc] = 0x20000073
        0x00001b7c:    7008        .p      STRB     r0,[r1,#0]
        0x00001b7e:    e002        ..      B        0x1b86 ; SPTIMER1Handler + 454
        0x00001b80:    2000        .       MOVS     r0,#0
        0x00001b82:    4992        .I      LDR      r1,[pc,#584] ; [0x1dcc] = 0x20000073
        0x00001b84:    7008        .p      STRB     r0,[r1,#0]
        0x00001b86:    488d        .H      LDR      r0,[pc,#564] ; [0x1dbc] = 0x2000005c
        0x00001b88:    6800        .h      LDR      r0,[r0,#0]
        0x00001b8a:    280e        .(      CMP      r0,#0xe
        0x00001b8c:    d156        V.      BNE      0x1c3c ; SPTIMER1Handler + 636
        0x00001b8e:    488b        .H      LDR      r0,[pc,#556] ; [0x1dbc] = 0x2000005c
        0x00001b90:    6800        .h      LDR      r0,[r0,#0]
        0x00001b92:    280e        .(      CMP      r0,#0xe
        0x00001b94:    d15f        _.      BNE      0x1c56 ; SPTIMER1Handler + 662
        0x00001b96:    488e        .H      LDR      r0,[pc,#568] ; [0x1dd0] = 0x20000074
        0x00001b98:    7800        .x      LDRB     r0,[r0,#0]
        0x00001b9a:    2800        .(      CMP      r0,#0
        0x00001b9c:    d15b        [.      BNE      0x1c56 ; SPTIMER1Handler + 662
        0x00001b9e:    2001        .       MOVS     r0,#1
        0x00001ba0:    498b        .I      LDR      r1,[pc,#556] ; [0x1dd0] = 0x20000074
        0x00001ba2:    7008        .p      STRB     r0,[r1,#0]
        0x00001ba4:    f7fff9be    ....    BL       GetGameState ; 0xf24
        0x00001ba8:    2801        .(      CMP      r0,#1
        0x00001baa:    d106        ..      BNE      0x1bba ; SPTIMER1Handler + 506
        0x00001bac:    f7fff9b4    ....    BL       GetGameMode ; 0xf18
        0x00001bb0:    2802        .(      CMP      r0,#2
        0x00001bb2:    d102        ..      BNE      0x1bba ; SPTIMER1Handler + 506
        0x00001bb4:    f7fff924    ..$.    BL       Game_Method ; 0xe00
        0x00001bb8:    e04d        M.      B        0x1c56 ; SPTIMER1Handler + 662
        0x00001bba:    f7fff9b3    ....    BL       GetGameState ; 0xf24
        0x00001bbe:    2801        .(      CMP      r0,#1
        0x00001bc0:    d102        ..      BNE      0x1bc8 ; SPTIMER1Handler + 520
        0x00001bc2:    f7fff937    ..7.    BL       Game_Start ; 0xe34
        0x00001bc6:    e046        F.      B        0x1c56 ; SPTIMER1Handler + 662
        0x00001bc8:    f7fff9ac    ....    BL       GetGameState ; 0xf24
        0x00001bcc:    2810        .(      CMP      r0,#0x10
        0x00001bce:    d114        ..      BNE      0x1bfa ; SPTIMER1Handler + 570
        0x00001bd0:    f7fff9ba    ....    BL       GetPauseMode ; 0xf48
        0x00001bd4:    2800        .(      CMP      r0,#0
        0x00001bd6:    d102        ..      BNE      0x1bde ; SPTIMER1Handler + 542
        0x00001bd8:    f7fff90c    ....    BL       Game_Continue ; 0xdf4
        0x00001bdc:    e03b        ;.      B        0x1c56 ; SPTIMER1Handler + 662
        0x00001bde:    f7fff9b3    ....    BL       GetPauseMode ; 0xf48
        0x00001be2:    2801        .(      CMP      r0,#1
        0x00001be4:    d102        ..      BNE      0x1bec ; SPTIMER1Handler + 556
        0x00001be6:    f7fff917    ....    BL       Game_Restart ; 0xe18
        0x00001bea:    e034        4.      B        0x1c56 ; SPTIMER1Handler + 662
        0x00001bec:    f7fff9ac    ....    BL       GetPauseMode ; 0xf48
        0x00001bf0:    2802        .(      CMP      r0,#2
        0x00001bf2:    d130        0.      BNE      0x1c56 ; SPTIMER1Handler + 662
        0x00001bf4:    f7fff904    ....    BL       Game_Method ; 0xe00
        0x00001bf8:    e02d        -.      B        0x1c56 ; SPTIMER1Handler + 662
        0x00001bfa:    f7fff993    ....    BL       GetGameState ; 0xf24
        0x00001bfe:    2820         (      CMP      r0,#0x20
        0x00001c00:    d102        ..      BNE      0x1c08 ; SPTIMER1Handler + 584
        0x00001c02:    f7fff909    ....    BL       Game_Restart ; 0xe18
        0x00001c06:    e026        &.      B        0x1c56 ; SPTIMER1Handler + 662
        0x00001c08:    f7fff98c    ....    BL       GetGameState ; 0xf24
        0x00001c0c:    2802        .(      CMP      r0,#2
        0x00001c0e:    d107        ..      BNE      0x1c20 ; SPTIMER1Handler + 608
        0x00001c10:    2102        .!      MOVS     r1,#2
        0x00001c12:    2013        .       MOVS     r0,#0x13
        0x00001c14:    f000fc14    ....    BL       mp3_send_cmd ; 0x2440
        0x00001c18:    2001        .       MOVS     r0,#1
        0x00001c1a:    496e        nI      LDR      r1,[pc,#440] ; [0x1dd4] = 0x40003040
        0x00001c1c:    63c8        .c      STR      r0,[r1,#0x3c]
        0x00001c1e:    e01a        ..      B        0x1c56 ; SPTIMER1Handler + 662
        0x00001c20:    f7fff980    ....    BL       GetGameState ; 0xf24
        0x00001c24:    2808        .(      CMP      r0,#8
        0x00001c26:    d102        ..      BNE      0x1c2e ; SPTIMER1Handler + 622
        0x00001c28:    f000f990    ....    BL       Third_Custom_Go ; 0x1f4c
        0x00001c2c:    e013        ..      B        0x1c56 ; SPTIMER1Handler + 662
        0x00001c2e:    f7fff979    ..y.    BL       GetGameState ; 0xf24
        0x00001c32:    287f        .(      CMP      r0,#0x7f
        0x00001c34:    d10f        ..      BNE      0x1c56 ; SPTIMER1Handler + 662
        0x00001c36:    f7fff8ef    ....    BL       Game_Restart ; 0xe18
        0x00001c3a:    e00c        ..      B        0x1c56 ; SPTIMER1Handler + 662
        0x00001c3c:    2000        .       MOVS     r0,#0
        0x00001c3e:    4964        dI      LDR      r1,[pc,#400] ; [0x1dd0] = 0x20000074
        0x00001c40:    7008        .p      STRB     r0,[r1,#0]
        0x00001c42:    4964        dI      LDR      r1,[pc,#400] ; [0x1dd4] = 0x40003040
        0x00001c44:    3940        @9      SUBS     r1,r1,#0x40
        0x00001c46:    6148        Ha      STR      r0,[r1,#0x14]
        0x00001c48:    60c8        .`      STR      r0,[r1,#0xc]
        0x00001c4a:    6048        H`      STR      r0,[r1,#4]
        0x00001c4c:    6108        .a      STR      r0,[r1,#0x10]
        0x00001c4e:    6008        .`      STR      r0,[r1,#0]
        0x00001c50:    61c8        .a      STR      r0,[r1,#0x1c]
        0x00001c52:    4960        `I      LDR      r1,[pc,#384] ; [0x1dd4] = 0x40003040
        0x00001c54:    63c8        .c      STR      r0,[r1,#0x3c]
        0x00001c56:    4859        YH      LDR      r0,[pc,#356] ; [0x1dbc] = 0x2000005c
        0x00001c58:    6800        .h      LDR      r0,[r0,#0]
        0x00001c5a:    2810        .(      CMP      r0,#0x10
        0x00001c5c:    d120         .      BNE      0x1ca0 ; SPTIMER1Handler + 736
        0x00001c5e:    4857        WH      LDR      r0,[pc,#348] ; [0x1dbc] = 0x2000005c
        0x00001c60:    6800        .h      LDR      r0,[r0,#0]
        0x00001c62:    2810        .(      CMP      r0,#0x10
        0x00001c64:    d124        $.      BNE      0x1cb0 ; SPTIMER1Handler + 752
        0x00001c66:    485c        \H      LDR      r0,[pc,#368] ; [0x1dd8] = 0x20000075
        0x00001c68:    7800        .x      LDRB     r0,[r0,#0]
        0x00001c6a:    2800        .(      CMP      r0,#0
        0x00001c6c:    d120         .      BNE      0x1cb0 ; SPTIMER1Handler + 752
        0x00001c6e:    2001        .       MOVS     r0,#1
        0x00001c70:    4959        YI      LDR      r1,[pc,#356] ; [0x1dd8] = 0x20000075
        0x00001c72:    7008        .p      STRB     r0,[r1,#0]
        0x00001c74:    f7fff956    ..V.    BL       GetGameState ; 0xf24
        0x00001c78:    2840        @(      CMP      r0,#0x40
        0x00001c7a:    d106        ..      BNE      0x1c8a ; SPTIMER1Handler + 714
        0x00001c7c:    f7fff964    ..d.    BL       GetPauseMode ; 0xf48
        0x00001c80:    2800        .(      CMP      r0,#0
        0x00001c82:    d102        ..      BNE      0x1c8a ; SPTIMER1Handler + 714
        0x00001c84:    f7fff8c8    ....    BL       Game_Restart ; 0xe18
        0x00001c88:    e012        ..      B        0x1cb0 ; SPTIMER1Handler + 752
        0x00001c8a:    f7fff94b    ..K.    BL       GetGameState ; 0xf24
        0x00001c8e:    2840        @(      CMP      r0,#0x40
        0x00001c90:    d10e        ..      BNE      0x1cb0 ; SPTIMER1Handler + 752
        0x00001c92:    f7fff959    ..Y.    BL       GetPauseMode ; 0xf48
        0x00001c96:    2802        .(      CMP      r0,#2
        0x00001c98:    d10a        ..      BNE      0x1cb0 ; SPTIMER1Handler + 752
        0x00001c9a:    f7fff8a5    ....    BL       Game_Cancle ; 0xde8
        0x00001c9e:    e007        ..      B        0x1cb0 ; SPTIMER1Handler + 752
        0x00001ca0:    2000        .       MOVS     r0,#0
        0x00001ca2:    494d        MI      LDR      r1,[pc,#308] ; [0x1dd8] = 0x20000075
        0x00001ca4:    7008        .p      STRB     r0,[r1,#0]
        0x00001ca6:    494b        KI      LDR      r1,[pc,#300] ; [0x1dd4] = 0x40003040
        0x00001ca8:    3940        @9      SUBS     r1,r1,#0x40
        0x00001caa:    6188        .a      STR      r0,[r1,#0x18]
        0x00001cac:    6108        .a      STR      r0,[r1,#0x10]
        0x00001cae:    60c8        .`      STR      r0,[r1,#0xc]
        0x00001cb0:    4842        BH      LDR      r0,[pc,#264] ; [0x1dbc] = 0x2000005c
        0x00001cb2:    6800        .h      LDR      r0,[r0,#0]
        0x00001cb4:    280d        .(      CMP      r0,#0xd
        0x00001cb6:    d11c        ..      BNE      0x1cf2 ; SPTIMER1Handler + 818
        0x00001cb8:    4840        @H      LDR      r0,[pc,#256] ; [0x1dbc] = 0x2000005c
        0x00001cba:    6800        .h      LDR      r0,[r0,#0]
        0x00001cbc:    280d        .(      CMP      r0,#0xd
        0x00001cbe:    d11e        ..      BNE      0x1cfe ; SPTIMER1Handler + 830
        0x00001cc0:    4846        FH      LDR      r0,[pc,#280] ; [0x1ddc] = 0x20000076
        0x00001cc2:    7800        .x      LDRB     r0,[r0,#0]
        0x00001cc4:    2800        .(      CMP      r0,#0
        0x00001cc6:    d11a        ..      BNE      0x1cfe ; SPTIMER1Handler + 830
        0x00001cc8:    2001        .       MOVS     r0,#1
        0x00001cca:    4944        DI      LDR      r1,[pc,#272] ; [0x1ddc] = 0x20000076
        0x00001ccc:    7008        .p      STRB     r0,[r1,#0]
        0x00001cce:    f7fff929    ..).    BL       GetGameState ; 0xf24
        0x00001cd2:    2804        .(      CMP      r0,#4
        0x00001cd4:    d007        ..      BEQ      0x1ce6 ; SPTIMER1Handler + 806
        0x00001cd6:    f7fff925    ..%.    BL       GetGameState ; 0xf24
        0x00001cda:    2802        .(      CMP      r0,#2
        0x00001cdc:    d003        ..      BEQ      0x1ce6 ; SPTIMER1Handler + 806
        0x00001cde:    f7fff921    ..!.    BL       GetGameState ; 0xf24
        0x00001ce2:    2808        .(      CMP      r0,#8
        0x00001ce4:    d10b        ..      BNE      0x1cfe ; SPTIMER1Handler + 830
        0x00001ce6:    2000        .       MOVS     r0,#0
        0x00001ce8:    f000f8ec    ....    BL       SetPauseMode ; 0x1ec4
        0x00001cec:    f7fff88e    ....    BL       Game_Pause ; 0xe0c
        0x00001cf0:    e005        ..      B        0x1cfe ; SPTIMER1Handler + 830
        0x00001cf2:    2000        .       MOVS     r0,#0
        0x00001cf4:    4939        9I      LDR      r1,[pc,#228] ; [0x1ddc] = 0x20000076
        0x00001cf6:    7008        .p      STRB     r0,[r1,#0]
        0x00001cf8:    4936        6I      LDR      r1,[pc,#216] ; [0x1dd4] = 0x40003040
        0x00001cfa:    3940        @9      SUBS     r1,r1,#0x40
        0x00001cfc:    6088        .`      STR      r0,[r1,#8]
        0x00001cfe:    482f        /H      LDR      r0,[pc,#188] ; [0x1dbc] = 0x2000005c
        0x00001d00:    6800        .h      LDR      r0,[r0,#0]
        0x00001d02:    280b        .(      CMP      r0,#0xb
        0x00001d04:    d10b        ..      BNE      0x1d1e ; SPTIMER1Handler + 862
        0x00001d06:    f7fff90d    ....    BL       GetGameState ; 0xf24
        0x00001d0a:    2804        .(      CMP      r0,#4
        0x00001d0c:    d107        ..      BNE      0x1d1e ; SPTIMER1Handler + 862
        0x00001d0e:    4834        4H      LDR      r0,[pc,#208] ; [0x1de0] = 0x20000078
        0x00001d10:    6800        .h      LDR      r0,[r0,#0]
        0x00001d12:    1c40        @.      ADDS     r0,r0,#1
        0x00001d14:    4932        2I      LDR      r1,[pc,#200] ; [0x1de0] = 0x20000078
        0x00001d16:    6008        .`      STR      r0,[r1,#0]
        0x00001d18:    7808        .x      LDRB     r0,[r1,#0]
        0x00001d1a:    f000f8cd    ....    BL       SetGameSobel ; 0x1eb8
        0x00001d1e:    4827        'H      LDR      r0,[pc,#156] ; [0x1dbc] = 0x2000005c
        0x00001d20:    6800        .h      LDR      r0,[r0,#0]
        0x00001d22:    280c        .(      CMP      r0,#0xc
        0x00001d24:    d10b        ..      BNE      0x1d3e ; SPTIMER1Handler + 894
        0x00001d26:    f7fff8fd    ....    BL       GetGameState ; 0xf24
        0x00001d2a:    2804        .(      CMP      r0,#4
        0x00001d2c:    d107        ..      BNE      0x1d3e ; SPTIMER1Handler + 894
        0x00001d2e:    482c        ,H      LDR      r0,[pc,#176] ; [0x1de0] = 0x20000078
        0x00001d30:    6800        .h      LDR      r0,[r0,#0]
        0x00001d32:    1e40        @.      SUBS     r0,r0,#1
        0x00001d34:    492a        *I      LDR      r1,[pc,#168] ; [0x1de0] = 0x20000078
        0x00001d36:    6008        .`      STR      r0,[r1,#0]
        0x00001d38:    7808        .x      LDRB     r0,[r1,#0]
        0x00001d3a:    f000f8bd    ....    BL       SetGameSobel ; 0x1eb8
        0x00001d3e:    481f        .H      LDR      r0,[pc,#124] ; [0x1dbc] = 0x2000005c
        0x00001d40:    6800        .h      LDR      r0,[r0,#0]
        0x00001d42:    280a        .(      CMP      r0,#0xa
        0x00001d44:    d11a        ..      BNE      0x1d7c ; SPTIMER1Handler + 956
        0x00001d46:    f7fff8ed    ....    BL       GetGameState ; 0xf24
        0x00001d4a:    2804        .(      CMP      r0,#4
        0x00001d4c:    d003        ..      BEQ      0x1d56 ; SPTIMER1Handler + 918
        0x00001d4e:    f7fff8e9    ....    BL       GetGameState ; 0xf24
        0x00001d52:    2808        .(      CMP      r0,#8
        0x00001d54:    d102        ..      BNE      0x1d5c ; SPTIMER1Handler + 924
        0x00001d56:    2001        .       MOVS     r0,#1
        0x00001d58:    491e        .I      LDR      r1,[pc,#120] ; [0x1dd4] = 0x40003040
        0x00001d5a:    6288        .b      STR      r0,[r1,#0x28]
        0x00001d5c:    481d        .H      LDR      r0,[pc,#116] ; [0x1dd4] = 0x40003040
        0x00001d5e:    69c0        .i      LDR      r0,[r0,#0x1c]
        0x00001d60:    2801        .(      CMP      r0,#1
        0x00001d62:    d115        ..      BNE      0x1d90 ; SPTIMER1Handler + 976
        0x00001d64:    f7fff8de    ....    BL       GetGameState ; 0xf24
        0x00001d68:    2802        .(      CMP      r0,#2
        0x00001d6a:    d103        ..      BNE      0x1d74 ; SPTIMER1Handler + 948
        0x00001d6c:    2001        .       MOVS     r0,#1
        0x00001d6e:    491d        .I      LDR      r1,[pc,#116] ; [0x1de4] = 0x40008000
        0x00001d70:    6148        Ha      STR      r0,[r1,#0x14]
        0x00001d72:    e00d        ..      B        0x1d90 ; SPTIMER1Handler + 976
        0x00001d74:    2000        .       MOVS     r0,#0
        0x00001d76:    491b        .I      LDR      r1,[pc,#108] ; [0x1de4] = 0x40008000
        0x00001d78:    6148        Ha      STR      r0,[r1,#0x14]
        0x00001d7a:    e009        ..      B        0x1d90 ; SPTIMER1Handler + 976
        0x00001d7c:    2000        .       MOVS     r0,#0
        0x00001d7e:    4915        .I      LDR      r1,[pc,#84] ; [0x1dd4] = 0x40003040
        0x00001d80:    6288        .b      STR      r0,[r1,#0x28]
        0x00001d82:    4608        .F      MOV      r0,r1
        0x00001d84:    69c0        .i      LDR      r0,[r0,#0x1c]
        0x00001d86:    2801        .(      CMP      r0,#1
        0x00001d88:    d102        ..      BNE      0x1d90 ; SPTIMER1Handler + 976
        0x00001d8a:    2000        .       MOVS     r0,#0
        0x00001d8c:    4915        .I      LDR      r1,[pc,#84] ; [0x1de4] = 0x40008000
        0x00001d8e:    6148        Ha      STR      r0,[r1,#0x14]
        0x00001d90:    480a        .H      LDR      r0,[pc,#40] ; [0x1dbc] = 0x2000005c
        0x00001d92:    6800        .h      LDR      r0,[r0,#0]
        0x00001d94:    2800        .(      CMP      r0,#0
        0x00001d96:    d109        ..      BNE      0x1dac ; SPTIMER1Handler + 1004
        0x00001d98:    490e        .I      LDR      r1,[pc,#56] ; [0x1dd4] = 0x40003040
        0x00001d9a:    3940        @9      SUBS     r1,r1,#0x40
        0x00001d9c:    6148        Ha      STR      r0,[r1,#0x14]
        0x00001d9e:    60c8        .`      STR      r0,[r1,#0xc]
        0x00001da0:    6048        H`      STR      r0,[r1,#4]
        0x00001da2:    6088        .`      STR      r0,[r1,#8]
        0x00001da4:    6108        .a      STR      r0,[r1,#0x10]
        0x00001da6:    6008        .`      STR      r0,[r1,#0]
        0x00001da8:    6188        .a      STR      r0,[r1,#0x18]
        0x00001daa:    61c8        .a      STR      r0,[r1,#0x1c]
        0x00001dac:    f7fefcae    ....    BL       Bird1_Control ; 0x70c
        0x00001db0:    f7fefd20    .. .    BL       Bird2_Control ; 0x7f4
        0x00001db4:    f7fefe70    ..p.    BL       Fourth_Control ; 0xa98
        0x00001db8:    e016        ..      B        0x1de8 ; SPTIMER1Handler + 1064
    $d
        0x00001dba:    0000        ..      DCW    0
        0x00001dbc:    2000005c    \..     DCD    536871004
        0x00001dc0:    20000070    p..     DCD    536871024
        0x00001dc4:    20000071    q..     DCD    536871025
        0x00001dc8:    20000072    r..     DCD    536871026
        0x00001dcc:    20000073    s..     DCD    536871027
        0x00001dd0:    20000074    t..     DCD    536871028
        0x00001dd4:    40003040    @0.@    DCD    1073754176
        0x00001dd8:    20000075    u..     DCD    536871029
        0x00001ddc:    20000076    v..     DCD    536871030
        0x00001de0:    20000078    x..     DCD    536871032
        0x00001de4:    40008000    ...@    DCD    1073774592
    $t
        0x00001de8:    f000f802    ....    BL       Servo_Control ; 0x1df0
        0x00001dec:    bd10        ..      POP      {r4,pc}
        0x00001dee:    0000        ..      MOVS     r0,r0
    i.Servo_Control
    Servo_Control
        0x00001df0:    b500        ..      PUSH     {lr}
        0x00001df2:    f7fff897    ....    BL       GetGameState ; 0xf24
        0x00001df6:    2802        .(      CMP      r0,#2
        0x00001df8:    d130        0.      BNE      0x1e5c ; Servo_Control + 108
        0x00001dfa:    4828        (H      LDR      r0,[pc,#160] ; [0x1e9c] = 0x20000060
        0x00001dfc:    6800        .h      LDR      r0,[r0,#0]
        0x00001dfe:    2814        .(      CMP      r0,#0x14
        0x00001e00:    da05        ..      BGE      0x1e0e ; Servo_Control + 30
        0x00001e02:    2001        .       MOVS     r0,#1
        0x00001e04:    4926        &I      LDR      r1,[pc,#152] ; [0x1ea0] = 0x40008000
        0x00001e06:    6088        .`      STR      r0,[r1,#8]
        0x00001e08:    2000        .       MOVS     r0,#0
        0x00001e0a:    60c8        .`      STR      r0,[r1,#0xc]
        0x00001e0c:    e00d        ..      B        0x1e2a ; Servo_Control + 58
        0x00001e0e:    4823        #H      LDR      r0,[pc,#140] ; [0x1e9c] = 0x20000060
        0x00001e10:    6800        .h      LDR      r0,[r0,#0]
        0x00001e12:    28c8        .(      CMP      r0,#0xc8
        0x00001e14:    dd05        ..      BLE      0x1e22 ; Servo_Control + 50
        0x00001e16:    2000        .       MOVS     r0,#0
        0x00001e18:    4921        !I      LDR      r1,[pc,#132] ; [0x1ea0] = 0x40008000
        0x00001e1a:    6088        .`      STR      r0,[r1,#8]
        0x00001e1c:    2001        .       MOVS     r0,#1
        0x00001e1e:    60c8        .`      STR      r0,[r1,#0xc]
        0x00001e20:    e003        ..      B        0x1e2a ; Servo_Control + 58
        0x00001e22:    2000        .       MOVS     r0,#0
        0x00001e24:    491e        .I      LDR      r1,[pc,#120] ; [0x1ea0] = 0x40008000
        0x00001e26:    6088        .`      STR      r0,[r1,#8]
        0x00001e28:    60c8        .`      STR      r0,[r1,#0xc]
        0x00001e2a:    481e        .H      LDR      r0,[pc,#120] ; [0x1ea4] = 0x20000064
        0x00001e2c:    6800        .h      LDR      r0,[r0,#0]
        0x00001e2e:    2864        d(      CMP      r0,#0x64
        0x00001e30:    da05        ..      BGE      0x1e3e ; Servo_Control + 78
        0x00001e32:    2001        .       MOVS     r0,#1
        0x00001e34:    491a        .I      LDR      r1,[pc,#104] ; [0x1ea0] = 0x40008000
        0x00001e36:    6008        .`      STR      r0,[r1,#0]
        0x00001e38:    2000        .       MOVS     r0,#0
        0x00001e3a:    6048        H`      STR      r0,[r1,#4]
        0x00001e3c:    e014        ..      B        0x1e68 ; Servo_Control + 120
        0x00001e3e:    4819        .H      LDR      r0,[pc,#100] ; [0x1ea4] = 0x20000064
        0x00001e40:    6800        .h      LDR      r0,[r0,#0]
        0x00001e42:    28fe        .(      CMP      r0,#0xfe
        0x00001e44:    dd05        ..      BLE      0x1e52 ; Servo_Control + 98
        0x00001e46:    2000        .       MOVS     r0,#0
        0x00001e48:    4915        .I      LDR      r1,[pc,#84] ; [0x1ea0] = 0x40008000
        0x00001e4a:    6008        .`      STR      r0,[r1,#0]
        0x00001e4c:    2001        .       MOVS     r0,#1
        0x00001e4e:    6048        H`      STR      r0,[r1,#4]
        0x00001e50:    e00a        ..      B        0x1e68 ; Servo_Control + 120
        0x00001e52:    2000        .       MOVS     r0,#0
        0x00001e54:    4912        .I      LDR      r1,[pc,#72] ; [0x1ea0] = 0x40008000
        0x00001e56:    6008        .`      STR      r0,[r1,#0]
        0x00001e58:    6048        H`      STR      r0,[r1,#4]
        0x00001e5a:    e005        ..      B        0x1e68 ; Servo_Control + 120
        0x00001e5c:    2000        .       MOVS     r0,#0
        0x00001e5e:    4910        .I      LDR      r1,[pc,#64] ; [0x1ea0] = 0x40008000
        0x00001e60:    6008        .`      STR      r0,[r1,#0]
        0x00001e62:    6048        H`      STR      r0,[r1,#4]
        0x00001e64:    6088        .`      STR      r0,[r1,#8]
        0x00001e66:    60c8        .`      STR      r0,[r1,#0xc]
        0x00001e68:    f7fff85c    ..\.    BL       GetGameState ; 0xf24
        0x00001e6c:    2801        .(      CMP      r0,#1
        0x00001e6e:    d102        ..      BNE      0x1e76 ; Servo_Control + 134
        0x00001e70:    490b        .I      LDR      r1,[pc,#44] ; [0x1ea0] = 0x40008000
        0x00001e72:    6108        .a      STR      r0,[r1,#0x10]
        0x00001e74:    e002        ..      B        0x1e7c ; Servo_Control + 140
        0x00001e76:    2000        .       MOVS     r0,#0
        0x00001e78:    4909        .I      LDR      r1,[pc,#36] ; [0x1ea0] = 0x40008000
        0x00001e7a:    6108        .a      STR      r0,[r1,#0x10]
        0x00001e7c:    480a        .H      LDR      r0,[pc,#40] ; [0x1ea8] = 0x40003040
        0x00001e7e:    69c0        .i      LDR      r0,[r0,#0x1c]
        0x00001e80:    2800        .(      CMP      r0,#0
        0x00001e82:    d10a        ..      BNE      0x1e9a ; Servo_Control + 170
        0x00001e84:    f7fff84e    ..N.    BL       GetGameState ; 0xf24
        0x00001e88:    2802        .(      CMP      r0,#2
        0x00001e8a:    d103        ..      BNE      0x1e94 ; Servo_Control + 164
        0x00001e8c:    2001        .       MOVS     r0,#1
        0x00001e8e:    4904        .I      LDR      r1,[pc,#16] ; [0x1ea0] = 0x40008000
        0x00001e90:    6148        Ha      STR      r0,[r1,#0x14]
        0x00001e92:    e002        ..      B        0x1e9a ; Servo_Control + 170
        0x00001e94:    2000        .       MOVS     r0,#0
        0x00001e96:    4902        .I      LDR      r1,[pc,#8] ; [0x1ea0] = 0x40008000
        0x00001e98:    6148        Ha      STR      r0,[r1,#0x14]
        0x00001e9a:    bd00        ..      POP      {pc}
    $d
        0x00001e9c:    20000060    `..     DCD    536871008
        0x00001ea0:    40008000    ...@    DCD    1073774592
        0x00001ea4:    20000064    d..     DCD    536871012
        0x00001ea8:    40003040    @0.@    DCD    1073754176
    $t
    i.SetGameMode
    SetGameMode
        0x00001eac:    4901        .I      LDR      r1,[pc,#4] ; [0x1eb4] = 0x40003040
        0x00001eae:    61c8        .a      STR      r0,[r1,#0x1c]
        0x00001eb0:    4770        pG      BX       lr
    $d
        0x00001eb2:    0000        ..      DCW    0
        0x00001eb4:    40003040    @0.@    DCD    1073754176
    $t
    i.SetGameSobel
    SetGameSobel
        0x00001eb8:    4901        .I      LDR      r1,[pc,#4] ; [0x1ec0] = 0x40003040
        0x00001eba:    6148        Ha      STR      r0,[r1,#0x14]
        0x00001ebc:    4770        pG      BX       lr
    $d
        0x00001ebe:    0000        ..      DCW    0
        0x00001ec0:    40003040    @0.@    DCD    1073754176
    $t
    i.SetPauseMode
    SetPauseMode
        0x00001ec4:    4901        .I      LDR      r1,[pc,#4] ; [0x1ecc] = 0x40003040
        0x00001ec6:    6208        .b      STR      r0,[r1,#0x20]
        0x00001ec8:    4770        pG      BX       lr
    $d
        0x00001eca:    0000        ..      DCW    0
        0x00001ecc:    40003040    @0.@    DCD    1073754176
    $t
    i.SetSG90
    SetSG90
        0x00001ed0:    4907        .I      LDR      r1,[pc,#28] ; [0x1ef0] = 0x2000004c
        0x00001ed2:    6809        .h      LDR      r1,[r1,#0]
        0x00001ed4:    4288        .B      CMP      r0,r1
        0x00001ed6:    d901        ..      BLS      0x1edc ; SetSG90 + 12
        0x00001ed8:    4905        .I      LDR      r1,[pc,#20] ; [0x1ef0] = 0x2000004c
        0x00001eda:    6808        .h      LDR      r0,[r1,#0]
        0x00001edc:    4905        .I      LDR      r1,[pc,#20] ; [0x1ef4] = 0x20000050
        0x00001ede:    6809        .h      LDR      r1,[r1,#0]
        0x00001ee0:    4288        .B      CMP      r0,r1
        0x00001ee2:    d201        ..      BCS      0x1ee8 ; SetSG90 + 24
        0x00001ee4:    4903        .I      LDR      r1,[pc,#12] ; [0x1ef4] = 0x20000050
        0x00001ee6:    6808        .h      LDR      r0,[r1,#0]
        0x00001ee8:    4903        .I      LDR      r1,[pc,#12] ; [0x1ef8] = 0x4000a000
        0x00001eea:    6008        .`      STR      r0,[r1,#0]
        0x00001eec:    4770        pG      BX       lr
    $d
        0x00001eee:    0000        ..      DCW    0
        0x00001ef0:    2000004c    L..     DCD    536870988
        0x00001ef4:    20000050    P..     DCD    536870992
        0x00001ef8:    4000a000    ...@    DCD    1073782784
    $t
    i.SimpleTimer_Init
    SimpleTimer_Init
        0x00001efc:    6001        .`      STR      r1,[r0,#0]
        0x00001efe:    6042        B`      STR      r2,[r0,#4]
        0x00001f00:    4770        pG      BX       lr
    i.Speech_Init
    Speech_Init
        0x00001f02:    b510        ..      PUSH     {r4,lr}
        0x00001f04:    2008        .       MOVS     r0,#8
        0x00001f06:    f7fff84f    ..O.    BL       NVIC_EnableIRQ ; 0xfa8
        0x00001f0a:    2009        .       MOVS     r0,#9
        0x00001f0c:    f7fff84c    ..L.    BL       NVIC_EnableIRQ ; 0xfa8
        0x00001f10:    200a        .       MOVS     r0,#0xa
        0x00001f12:    f7fff849    ..I.    BL       NVIC_EnableIRQ ; 0xfa8
        0x00001f16:    200b        .       MOVS     r0,#0xb
        0x00001f18:    f7fff846    ..F.    BL       NVIC_EnableIRQ ; 0xfa8
        0x00001f1c:    200c        .       MOVS     r0,#0xc
        0x00001f1e:    f7fff843    ..C.    BL       NVIC_EnableIRQ ; 0xfa8
        0x00001f22:    200d        .       MOVS     r0,#0xd
        0x00001f24:    f7fff840    ..@.    BL       NVIC_EnableIRQ ; 0xfa8
        0x00001f28:    200e        .       MOVS     r0,#0xe
        0x00001f2a:    f7fff83d    ..=.    BL       NVIC_EnableIRQ ; 0xfa8
        0x00001f2e:    200f        .       MOVS     r0,#0xf
        0x00001f30:    f7fff83a    ..:.    BL       NVIC_EnableIRQ ; 0xfa8
        0x00001f34:    2010        .       MOVS     r0,#0x10
        0x00001f36:    f7fff837    ..7.    BL       NVIC_EnableIRQ ; 0xfa8
        0x00001f3a:    bd10        ..      POP      {r4,pc}
    i.SystemInit
    SystemInit
        0x00001f3c:    4801        .H      LDR      r0,[pc,#4] ; [0x1f44] = 0x5f5e100
        0x00001f3e:    4902        .I      LDR      r1,[pc,#8] ; [0x1f48] = 0x20000004
        0x00001f40:    6008        .`      STR      r0,[r1,#0]
        0x00001f42:    4770        pG      BX       lr
    $d
        0x00001f44:    05f5e100    ....    DCD    100000000
        0x00001f48:    20000004    ...     DCD    536870916
    $t
    i.Third_Custom_Go
    Third_Custom_Go
        0x00001f4c:    2001        .       MOVS     r0,#1
        0x00001f4e:    4901        .I      LDR      r1,[pc,#4] ; [0x1f54] = 0x40003000
        0x00001f50:    61c8        .a      STR      r0,[r1,#0x1c]
        0x00001f52:    4770        pG      BX       lr
    $d
        0x00001f54:    40003000    .0.@    DCD    1073754112
    $t
    i.UARTRX0Handler
    UARTRX0Handler
        0x00001f58:    4770        pG      BX       lr
        0x00001f5a:    0000        ..      MOVS     r0,r0
    i.UARTRX1Handler
    UARTRX1Handler
        0x00001f5c:    b5f8        ..      PUSH     {r3-r7,lr}
        0x00001f5e:    4875        uH      LDR      r0,[pc,#468] ; [0x2134] = 0x50005000
        0x00001f60:    f000f90a    ....    BL       UART_ClearRxIRQ ; 0x2178
        0x00001f64:    4873        sH      LDR      r0,[pc,#460] ; [0x2134] = 0x50005000
        0x00001f66:    f000f941    ..A.    BL       UART_ReceiveByte ; 0x21ec
        0x00001f6a:    4604        .F      MOV      r4,r0
        0x00001f6c:    4872        rH      LDR      r0,[pc,#456] ; [0x2138] = 0x20000049
        0x00001f6e:    7800        .x      LDRB     r0,[r0,#0]
        0x00001f70:    2800        .(      CMP      r0,#0
        0x00001f72:    d10e        ..      BNE      0x1f92 ; UARTRX1Handler + 54
        0x00001f74:    2c55        U,      CMP      r4,#0x55
        0x00001f76:    d10c        ..      BNE      0x1f92 ; UARTRX1Handler + 54
        0x00001f78:    2001        .       MOVS     r0,#1
        0x00001f7a:    496f        oI      LDR      r1,[pc,#444] ; [0x2138] = 0x20000049
        0x00001f7c:    7008        .p      STRB     r0,[r1,#0]
        0x00001f7e:    486f        oH      LDR      r0,[pc,#444] ; [0x213c] = 0x20000048
        0x00001f80:    7801        .x      LDRB     r1,[r0,#0]
        0x00001f82:    7800        .x      LDRB     r0,[r0,#0]
        0x00001f84:    1c40        @.      ADDS     r0,r0,#1
        0x00001f86:    4a6d        mJ      LDR      r2,[pc,#436] ; [0x213c] = 0x20000048
        0x00001f88:    7010        .p      STRB     r0,[r2,#0]
        0x00001f8a:    0048        H.      LSLS     r0,r1,#1
        0x00001f8c:    496c        lI      LDR      r1,[pc,#432] ; [0x2140] = 0x20000514
        0x00001f8e:    520c        .R      STRH     r4,[r1,r0]
        0x00001f90:    e0ce        ..      B        0x2130 ; UARTRX1Handler + 468
        0x00001f92:    4869        iH      LDR      r0,[pc,#420] ; [0x2138] = 0x20000049
        0x00001f94:    7800        .x      LDRB     r0,[r0,#0]
        0x00001f96:    2801        .(      CMP      r0,#1
        0x00001f98:    d10e        ..      BNE      0x1fb8 ; UARTRX1Handler + 92
        0x00001f9a:    2c55        U,      CMP      r4,#0x55
        0x00001f9c:    d10c        ..      BNE      0x1fb8 ; UARTRX1Handler + 92
        0x00001f9e:    2002        .       MOVS     r0,#2
        0x00001fa0:    4965        eI      LDR      r1,[pc,#404] ; [0x2138] = 0x20000049
        0x00001fa2:    7008        .p      STRB     r0,[r1,#0]
        0x00001fa4:    4865        eH      LDR      r0,[pc,#404] ; [0x213c] = 0x20000048
        0x00001fa6:    7801        .x      LDRB     r1,[r0,#0]
        0x00001fa8:    7800        .x      LDRB     r0,[r0,#0]
        0x00001faa:    1c40        @.      ADDS     r0,r0,#1
        0x00001fac:    4a63        cJ      LDR      r2,[pc,#396] ; [0x213c] = 0x20000048
        0x00001fae:    7010        .p      STRB     r0,[r2,#0]
        0x00001fb0:    0048        H.      LSLS     r0,r1,#1
        0x00001fb2:    4963        cI      LDR      r1,[pc,#396] ; [0x2140] = 0x20000514
        0x00001fb4:    520c        .R      STRH     r4,[r1,r0]
        0x00001fb6:    e0bb        ..      B        0x2130 ; UARTRX1Handler + 468
        0x00001fb8:    485f        _H      LDR      r0,[pc,#380] ; [0x2138] = 0x20000049
        0x00001fba:    7800        .x      LDRB     r0,[r0,#0]
        0x00001fbc:    2802        .(      CMP      r0,#2
        0x00001fbe:    d10e        ..      BNE      0x1fde ; UARTRX1Handler + 130
        0x00001fc0:    2c01        .,      CMP      r4,#1
        0x00001fc2:    d10c        ..      BNE      0x1fde ; UARTRX1Handler + 130
        0x00001fc4:    2003        .       MOVS     r0,#3
        0x00001fc6:    495c        \I      LDR      r1,[pc,#368] ; [0x2138] = 0x20000049
        0x00001fc8:    7008        .p      STRB     r0,[r1,#0]
        0x00001fca:    485c        \H      LDR      r0,[pc,#368] ; [0x213c] = 0x20000048
        0x00001fcc:    7801        .x      LDRB     r1,[r0,#0]
        0x00001fce:    7800        .x      LDRB     r0,[r0,#0]
        0x00001fd0:    1c40        @.      ADDS     r0,r0,#1
        0x00001fd2:    4a5a        ZJ      LDR      r2,[pc,#360] ; [0x213c] = 0x20000048
        0x00001fd4:    7010        .p      STRB     r0,[r2,#0]
        0x00001fd6:    0048        H.      LSLS     r0,r1,#1
        0x00001fd8:    4959        YI      LDR      r1,[pc,#356] ; [0x2140] = 0x20000514
        0x00001fda:    520c        .R      STRH     r4,[r1,r0]
        0x00001fdc:    e0a8        ..      B        0x2130 ; UARTRX1Handler + 468
        0x00001fde:    4856        VH      LDR      r0,[pc,#344] ; [0x2138] = 0x20000049
        0x00001fe0:    7800        .x      LDRB     r0,[r0,#0]
        0x00001fe2:    2803        .(      CMP      r0,#3
        0x00001fe4:    d10e        ..      BNE      0x2004 ; UARTRX1Handler + 168
        0x00001fe6:    2c06        .,      CMP      r4,#6
        0x00001fe8:    d10c        ..      BNE      0x2004 ; UARTRX1Handler + 168
        0x00001fea:    2004        .       MOVS     r0,#4
        0x00001fec:    4952        RI      LDR      r1,[pc,#328] ; [0x2138] = 0x20000049
        0x00001fee:    7008        .p      STRB     r0,[r1,#0]
        0x00001ff0:    4852        RH      LDR      r0,[pc,#328] ; [0x213c] = 0x20000048
        0x00001ff2:    7801        .x      LDRB     r1,[r0,#0]
        0x00001ff4:    7800        .x      LDRB     r0,[r0,#0]
        0x00001ff6:    1c40        @.      ADDS     r0,r0,#1
        0x00001ff8:    4a50        PJ      LDR      r2,[pc,#320] ; [0x213c] = 0x20000048
        0x00001ffa:    7010        .p      STRB     r0,[r2,#0]
        0x00001ffc:    0048        H.      LSLS     r0,r1,#1
        0x00001ffe:    4950        PI      LDR      r1,[pc,#320] ; [0x2140] = 0x20000514
        0x00002000:    520c        .R      STRH     r4,[r1,r0]
        0x00002002:    e095        ..      B        0x2130 ; UARTRX1Handler + 468
        0x00002004:    484c        LH      LDR      r0,[pc,#304] ; [0x2138] = 0x20000049
        0x00002006:    7800        .x      LDRB     r0,[r0,#0]
        0x00002008:    2804        .(      CMP      r0,#4
        0x0000200a:    d12b        +.      BNE      0x2064 ; UARTRX1Handler + 264
        0x0000200c:    484b        KH      LDR      r0,[pc,#300] ; [0x213c] = 0x20000048
        0x0000200e:    7801        .x      LDRB     r1,[r0,#0]
        0x00002010:    7800        .x      LDRB     r0,[r0,#0]
        0x00002012:    1c40        @.      ADDS     r0,r0,#1
        0x00002014:    4a49        IJ      LDR      r2,[pc,#292] ; [0x213c] = 0x20000048
        0x00002016:    7010        .p      STRB     r0,[r2,#0]
        0x00002018:    0048        H.      LSLS     r0,r1,#1
        0x0000201a:    4949        II      LDR      r1,[pc,#292] ; [0x2140] = 0x20000514
        0x0000201c:    520c        .R      STRH     r4,[r1,r0]
        0x0000201e:    4610        .F      MOV      r0,r2
        0x00002020:    7800        .x      LDRB     r0,[r0,#0]
        0x00002022:    280b        .(      CMP      r0,#0xb
        0x00002024:    dbb4        ..      BLT      0x1f90 ; UARTRX1Handler + 52
        0x00002026:    2005        .       MOVS     r0,#5
        0x00002028:    4943        CI      LDR      r1,[pc,#268] ; [0x2138] = 0x20000049
        0x0000202a:    7008        .p      STRB     r0,[r1,#0]
        0x0000202c:    2001        .       MOVS     r0,#1
        0x0000202e:    4945        EI      LDR      r1,[pc,#276] ; [0x2144] = 0x2000004a
        0x00002030:    7008        .p      STRB     r0,[r1,#0]
        0x00002032:    4843        CH      LDR      r0,[pc,#268] ; [0x2140] = 0x20000514
        0x00002034:    7a00        .z      LDRB     r0,[r0,#8]
        0x00002036:    4944        DI      LDR      r1,[pc,#272] ; [0x2148] = 0x20000034
        0x00002038:    7008        .p      STRB     r0,[r1,#0]
        0x0000203a:    4841        AH      LDR      r0,[pc,#260] ; [0x2140] = 0x20000514
        0x0000203c:    7a80        .z      LDRB     r0,[r0,#0xa]
        0x0000203e:    4943        CI      LDR      r1,[pc,#268] ; [0x214c] = 0x20000035
        0x00002040:    7008        .p      STRB     r0,[r1,#0]
        0x00002042:    483f        ?H      LDR      r0,[pc,#252] ; [0x2140] = 0x20000514
        0x00002044:    7b00        .{      LDRB     r0,[r0,#0xc]
        0x00002046:    4942        BI      LDR      r1,[pc,#264] ; [0x2150] = 0x20000036
        0x00002048:    7008        .p      STRB     r0,[r1,#0]
        0x0000204a:    483d        =H      LDR      r0,[pc,#244] ; [0x2140] = 0x20000514
        0x0000204c:    7b80        .{      LDRB     r0,[r0,#0xe]
        0x0000204e:    4941        AI      LDR      r1,[pc,#260] ; [0x2154] = 0x20000037
        0x00002050:    7008        .p      STRB     r0,[r1,#0]
        0x00002052:    483b        ;H      LDR      r0,[pc,#236] ; [0x2140] = 0x20000514
        0x00002054:    7c00        .|      LDRB     r0,[r0,#0x10]
        0x00002056:    4940        @I      LDR      r1,[pc,#256] ; [0x2158] = 0x20000038
        0x00002058:    7008        .p      STRB     r0,[r1,#0]
        0x0000205a:    4839        9H      LDR      r0,[pc,#228] ; [0x2140] = 0x20000514
        0x0000205c:    7c80        .|      LDRB     r0,[r0,#0x12]
        0x0000205e:    493f        ?I      LDR      r1,[pc,#252] ; [0x215c] = 0x20000039
        0x00002060:    7008        .p      STRB     r0,[r1,#0]
        0x00002062:    e065        e.      B        0x2130 ; UARTRX1Handler + 468
        0x00002064:    4834        4H      LDR      r0,[pc,#208] ; [0x2138] = 0x20000049
        0x00002066:    7800        .x      LDRB     r0,[r0,#0]
        0x00002068:    2805        .(      CMP      r0,#5
        0x0000206a:    d152        R.      BNE      0x2112 ; UARTRX1Handler + 438
        0x0000206c:    4833        3H      LDR      r0,[pc,#204] ; [0x213c] = 0x20000048
        0x0000206e:    7800        .x      LDRB     r0,[r0,#0]
        0x00002070:    280b        .(      CMP      r0,#0xb
        0x00002072:    db3e        >.      BLT      0x20f2 ; UARTRX1Handler + 406
        0x00002074:    4833        3H      LDR      r0,[pc,#204] ; [0x2144] = 0x2000004a
        0x00002076:    7800        .x      LDRB     r0,[r0,#0]
        0x00002078:    2800        .(      CMP      r0,#0
        0x0000207a:    d032        2.      BEQ      0x20e2 ; UARTRX1Handler + 390
        0x0000207c:    4933        3I      LDR      r1,[pc,#204] ; [0x214c] = 0x20000035
        0x0000207e:    7809        .x      LDRB     r1,[r1,#0]
        0x00002080:    0209        ..      LSLS     r1,r1,#8
        0x00002082:    b208        ..      SXTH     r0,r1
        0x00002084:    f7fefa52    ..R.    BL       __aeabi_i2f ; 0x52c
        0x00002088:    4607        .F      MOV      r7,r0
        0x0000208a:    2147        G!      MOVS     r1,#0x47
        0x0000208c:    0609        ..      LSLS     r1,r1,#24
        0x0000208e:    f7fef961    ..a.    BL       __aeabi_fdiv ; 0x354
        0x00002092:    4606        .F      MOV      r6,r0
        0x00002094:    4932        2I      LDR      r1,[pc,#200] ; [0x2160] = 0x43340000
        0x00002096:    f000fa23    ..#.    BL       __aeabi_fmul ; 0x24e0
        0x0000209a:    4932        2I      LDR      r1,[pc,#200] ; [0x2164] = 0x2000003c
        0x0000209c:    6008        .`      STR      r0,[r1,#0]
        0x0000209e:    492d        -I      LDR      r1,[pc,#180] ; [0x2154] = 0x20000037
        0x000020a0:    7809        .x      LDRB     r1,[r1,#0]
        0x000020a2:    0209        ..      LSLS     r1,r1,#8
        0x000020a4:    b208        ..      SXTH     r0,r1
        0x000020a6:    f7fefa41    ..A.    BL       __aeabi_i2f ; 0x52c
        0x000020aa:    4607        .F      MOV      r7,r0
        0x000020ac:    2147        G!      MOVS     r1,#0x47
        0x000020ae:    0609        ..      LSLS     r1,r1,#24
        0x000020b0:    f7fef950    ..P.    BL       __aeabi_fdiv ; 0x354
        0x000020b4:    4606        .F      MOV      r6,r0
        0x000020b6:    492a        *I      LDR      r1,[pc,#168] ; [0x2160] = 0x43340000
        0x000020b8:    f000fa12    ....    BL       __aeabi_fmul ; 0x24e0
        0x000020bc:    492a        *I      LDR      r1,[pc,#168] ; [0x2168] = 0x20000040
        0x000020be:    6008        .`      STR      r0,[r1,#0]
        0x000020c0:    4926        &I      LDR      r1,[pc,#152] ; [0x215c] = 0x20000039
        0x000020c2:    7809        .x      LDRB     r1,[r1,#0]
        0x000020c4:    0209        ..      LSLS     r1,r1,#8
        0x000020c6:    b208        ..      SXTH     r0,r1
        0x000020c8:    f7fefa30    ..0.    BL       __aeabi_i2f ; 0x52c
        0x000020cc:    4607        .F      MOV      r7,r0
        0x000020ce:    2147        G!      MOVS     r1,#0x47
        0x000020d0:    0609        ..      LSLS     r1,r1,#24
        0x000020d2:    f7fef93f    ..?.    BL       __aeabi_fdiv ; 0x354
        0x000020d6:    4606        .F      MOV      r6,r0
        0x000020d8:    4921        !I      LDR      r1,[pc,#132] ; [0x2160] = 0x43340000
        0x000020da:    f000fa01    ....    BL       __aeabi_fmul ; 0x24e0
        0x000020de:    4923        #I      LDR      r1,[pc,#140] ; [0x216c] = 0x20000044
        0x000020e0:    6008        .`      STR      r0,[r1,#0]
        0x000020e2:    2000        .       MOVS     r0,#0
        0x000020e4:    4917        .I      LDR      r1,[pc,#92] ; [0x2144] = 0x2000004a
        0x000020e6:    7008        .p      STRB     r0,[r1,#0]
        0x000020e8:    4914        .I      LDR      r1,[pc,#80] ; [0x213c] = 0x20000048
        0x000020ea:    7008        .p      STRB     r0,[r1,#0]
        0x000020ec:    4912        .I      LDR      r1,[pc,#72] ; [0x2138] = 0x20000049
        0x000020ee:    7008        .p      STRB     r0,[r1,#0]
        0x000020f0:    e01e        ..      B        0x2130 ; UARTRX1Handler + 468
        0x000020f2:    2000        .       MOVS     r0,#0
        0x000020f4:    4910        .I      LDR      r1,[pc,#64] ; [0x2138] = 0x20000049
        0x000020f6:    7008        .p      STRB     r0,[r1,#0]
        0x000020f8:    4910        .I      LDR      r1,[pc,#64] ; [0x213c] = 0x20000048
        0x000020fa:    7008        .p      STRB     r0,[r1,#0]
        0x000020fc:    2500        .%      MOVS     r5,#0
        0x000020fe:    e005        ..      B        0x210c ; UARTRX1Handler + 432
        0x00002100:    2000        .       MOVS     r0,#0
        0x00002102:    0069        i.      LSLS     r1,r5,#1
        0x00002104:    4a0e        .J      LDR      r2,[pc,#56] ; [0x2140] = 0x20000514
        0x00002106:    5250        PR      STRH     r0,[r2,r1]
        0x00002108:    1c68        h.      ADDS     r0,r5,#1
        0x0000210a:    b2c5        ..      UXTB     r5,r0
        0x0000210c:    2d0a        .-      CMP      r5,#0xa
        0x0000210e:    dbf7        ..      BLT      0x2100 ; UARTRX1Handler + 420
        0x00002110:    e00e        ..      B        0x2130 ; UARTRX1Handler + 468
        0x00002112:    2000        .       MOVS     r0,#0
        0x00002114:    4908        .I      LDR      r1,[pc,#32] ; [0x2138] = 0x20000049
        0x00002116:    7008        .p      STRB     r0,[r1,#0]
        0x00002118:    4908        .I      LDR      r1,[pc,#32] ; [0x213c] = 0x20000048
        0x0000211a:    7008        .p      STRB     r0,[r1,#0]
        0x0000211c:    2500        .%      MOVS     r5,#0
        0x0000211e:    e005        ..      B        0x212c ; UARTRX1Handler + 464
        0x00002120:    2000        .       MOVS     r0,#0
        0x00002122:    0069        i.      LSLS     r1,r5,#1
        0x00002124:    4a06        .J      LDR      r2,[pc,#24] ; [0x2140] = 0x20000514
        0x00002126:    5250        PR      STRH     r0,[r2,r1]
        0x00002128:    1c68        h.      ADDS     r0,r5,#1
        0x0000212a:    b2c5        ..      UXTB     r5,r0
        0x0000212c:    2d0a        .-      CMP      r5,#0xa
        0x0000212e:    dbf7        ..      BLT      0x2120 ; UARTRX1Handler + 452
        0x00002130:    bdf8        ..      POP      {r3-r7,pc}
    $d
        0x00002132:    0000        ..      DCW    0
        0x00002134:    50005000    .P.P    DCD    1342197760
        0x00002138:    20000049    I..     DCD    536870985
        0x0000213c:    20000048    H..     DCD    536870984
        0x00002140:    20000514    ...     DCD    536872212
        0x00002144:    2000004a    J..     DCD    536870986
        0x00002148:    20000034    4..     DCD    536870964
        0x0000214c:    20000035    5..     DCD    536870965
        0x00002150:    20000036    6..     DCD    536870966
        0x00002154:    20000037    7..     DCD    536870967
        0x00002158:    20000038    8..     DCD    536870968
        0x0000215c:    20000039    9..     DCD    536870969
        0x00002160:    43340000    ..4C    DCD    1127481344
        0x00002164:    2000003c    <..     DCD    536870972
        0x00002168:    20000040    @..     DCD    536870976
        0x0000216c:    20000044    D..     DCD    536870980
    $t
    i.UARTRX2Handler
    UARTRX2Handler
        0x00002170:    4770        pG      BX       lr
    i.UARTTX0Handler
    UARTTX0Handler
        0x00002172:    4770        pG      BX       lr
    i.UARTTX1Handler
    UARTTX1Handler
        0x00002174:    4770        pG      BX       lr
    i.UARTTX2Handler
    UARTTX2Handler
        0x00002176:    4770        pG      BX       lr
    i.UART_ClearRxIRQ
    UART_ClearRxIRQ
        0x00002178:    2102        .!      MOVS     r1,#2
        0x0000217a:    60c1        .`      STR      r1,[r0,#0xc]
        0x0000217c:    4770        pG      BX       lr
    i.UART_IRQInit
    UART_IRQInit
        0x0000217e:    b510        ..      PUSH     {r4,lr}
        0x00002180:    460b        .F      MOV      r3,r1
        0x00002182:    2100        .!      MOVS     r1,#0
        0x00002184:    2b00        .+      CMP      r3,#0
        0x00002186:    d001        ..      BEQ      0x218c ; UART_IRQInit + 14
        0x00002188:    2404        .$      MOVS     r4,#4
        0x0000218a:    4321        !C      ORRS     r1,r1,r4
        0x0000218c:    2a00        .*      CMP      r2,#0
        0x0000218e:    d001        ..      BEQ      0x2194 ; UART_IRQInit + 22
        0x00002190:    2408        .$      MOVS     r4,#8
        0x00002192:    4321        !C      ORRS     r1,r1,r4
        0x00002194:    6884        .h      LDR      r4,[r0,#8]
        0x00002196:    430c        .C      ORRS     r4,r4,r1
        0x00002198:    6084        .`      STR      r4,[r0,#8]
        0x0000219a:    bd10        ..      POP      {r4,pc}
    i.UART_Init
    UART_Init
        0x0000219c:    b5ff        ..      PUSH     {r0-r7,lr}
        0x0000219e:    b083        ..      SUB      sp,sp,#0xc
        0x000021a0:    4604        .F      MOV      r4,r0
        0x000021a2:    460e        .F      MOV      r6,r1
        0x000021a4:    4617        .F      MOV      r7,r2
        0x000021a6:    2500        .%      MOVS     r5,#0
        0x000021a8:    bf00        ..      NOP      
        0x000021aa:    480f        .H      LDR      r0,[pc,#60] ; [0x21e8] = 0x23c3460
        0x000021ac:    9001        ..      STR      r0,[sp,#4]
        0x000021ae:    2f00        ./      CMP      r7,#0
        0x000021b0:    d001        ..      BEQ      0x21b6 ; UART_Init + 26
        0x000021b2:    2001        .       MOVS     r0,#1
        0x000021b4:    4305        .C      ORRS     r5,r5,r0
        0x000021b6:    9806        ..      LDR      r0,[sp,#0x18]
        0x000021b8:    2800        .(      CMP      r0,#0
        0x000021ba:    d001        ..      BEQ      0x21c0 ; UART_Init + 36
        0x000021bc:    2002        .       MOVS     r0,#2
        0x000021be:    4305        .C      ORRS     r5,r5,r0
        0x000021c0:    2000        .       MOVS     r0,#0
        0x000021c2:    60a0        .`      STR      r0,[r4,#8]
        0x000021c4:    00b1        ..      LSLS     r1,r6,#2
        0x000021c6:    2319        .#      MOVS     r3,#0x19
        0x000021c8:    9a01        ..      LDR      r2,[sp,#4]
        0x000021ca:    435a        ZC      MULS     r2,r3,r2
        0x000021cc:    4610        .F      MOV      r0,r2
        0x000021ce:    f7fef811    ....    BL       __aeabi_uidiv ; 0x1f4
        0x000021d2:    2164        d!      MOVS     r1,#0x64
        0x000021d4:    9000        ..      STR      r0,[sp,#0]
        0x000021d6:    f7fef80d    ....    BL       __aeabi_uidiv ; 0x1f4
        0x000021da:    0100        ..      LSLS     r0,r0,#4
        0x000021dc:    9002        ..      STR      r0,[sp,#8]
        0x000021de:    9802        ..      LDR      r0,[sp,#8]
        0x000021e0:    6120         a      STR      r0,[r4,#0x10]
        0x000021e2:    60a5        .`      STR      r5,[r4,#8]
        0x000021e4:    b007        ..      ADD      sp,sp,#0x1c
        0x000021e6:    bdf0        ..      POP      {r4-r7,pc}
    $d
        0x000021e8:    023c3460    `4<.    DCD    37500000
    $t
    i.UART_ReceiveByte
    UART_ReceiveByte
        0x000021ec:    4601        .F      MOV      r1,r0
        0x000021ee:    bf00        ..      NOP      
        0x000021f0:    6848        Hh      LDR      r0,[r1,#4]
        0x000021f2:    2202        ."      MOVS     r2,#2
        0x000021f4:    4010        .@      ANDS     r0,r0,r2
        0x000021f6:    2800        .(      CMP      r0,#0
        0x000021f8:    d0fa        ..      BEQ      0x21f0 ; UART_ReceiveByte + 4
        0x000021fa:    6808        .h      LDR      r0,[r1,#0]
        0x000021fc:    b2c0        ..      UXTB     r0,r0
        0x000021fe:    4770        pG      BX       lr
    i.UART_SendArray
    UART_SendArray
        0x00002200:    b570        p.      PUSH     {r4-r6,lr}
        0x00002202:    4606        .F      MOV      r6,r0
        0x00002204:    460c        .F      MOV      r4,r1
        0x00002206:    4615        .F      MOV      r5,r2
        0x00002208:    2300        .#      MOVS     r3,#0
        0x0000220a:    e005        ..      B        0x2218 ; UART_SendArray + 24
        0x0000220c:    5ce1        .\      LDRB     r1,[r4,r3]
        0x0000220e:    4630        0F      MOV      r0,r6
        0x00002210:    f000f805    ....    BL       UART_SendByte ; 0x221e
        0x00002214:    1c58        X.      ADDS     r0,r3,#1
        0x00002216:    b283        ..      UXTH     r3,r0
        0x00002218:    42ab        .B      CMP      r3,r5
        0x0000221a:    dbf7        ..      BLT      0x220c ; UART_SendArray + 12
        0x0000221c:    bd70        p.      POP      {r4-r6,pc}
    i.UART_SendByte
    UART_SendByte
        0x0000221e:    bf00        ..      NOP      
        0x00002220:    6842        Bh      LDR      r2,[r0,#4]
        0x00002222:    07d2        ..      LSLS     r2,r2,#31
        0x00002224:    0fd2        ..      LSRS     r2,r2,#31
        0x00002226:    2a00        .*      CMP      r2,#0
        0x00002228:    d1fa        ..      BNE      0x2220 ; UART_SendByte + 2
        0x0000222a:    6001        .`      STR      r1,[r0,#0]
        0x0000222c:    4770        pG      BX       lr
        0x0000222e:    0000        ..      MOVS     r0,r0
    i.delay_ms
    delay_ms
        0x00002230:    b510        ..      PUSH     {r4,lr}
        0x00002232:    4601        .F      MOV      r1,r0
        0x00002234:    2200        ."      MOVS     r2,#0
        0x00002236:    e013        ..      B        0x2260 ; delay_ms + 48
        0x00002238:    4b0d        .K      LDR      r3,[pc,#52] ; [0x2270] = 0x9c40
        0x0000223a:    4c0e        .L      LDR      r4,[pc,#56] ; [0x2274] = 0xe000e000
        0x0000223c:    6163        ca      STR      r3,[r4,#0x14]
        0x0000223e:    2305        .#      MOVS     r3,#5
        0x00002240:    6123        #a      STR      r3,[r4,#0x10]
        0x00002242:    2300        .#      MOVS     r3,#0
        0x00002244:    61a3        .a      STR      r3,[r4,#0x18]
        0x00002246:    bf00        ..      NOP      
        0x00002248:    4b0a        .K      LDR      r3,[pc,#40] ; [0x2274] = 0xe000e000
        0x0000224a:    6918        .i      LDR      r0,[r3,#0x10]
        0x0000224c:    07c3        ..      LSLS     r3,r0,#31
        0x0000224e:    0fdb        ..      LSRS     r3,r3,#31
        0x00002250:    2b00        .+      CMP      r3,#0
        0x00002252:    d004        ..      BEQ      0x225e ; delay_ms + 46
        0x00002254:    2301        .#      MOVS     r3,#1
        0x00002256:    041b        ..      LSLS     r3,r3,#16
        0x00002258:    4003        .@      ANDS     r3,r3,r0
        0x0000225a:    2b00        .+      CMP      r3,#0
        0x0000225c:    d0f4        ..      BEQ      0x2248 ; delay_ms + 24
        0x0000225e:    1c52        R.      ADDS     r2,r2,#1
        0x00002260:    428a        .B      CMP      r2,r1
        0x00002262:    d3e9        ..      BCC      0x2238 ; delay_ms + 8
        0x00002264:    2300        .#      MOVS     r3,#0
        0x00002266:    4c03        .L      LDR      r4,[pc,#12] ; [0x2274] = 0xe000e000
        0x00002268:    6123        #a      STR      r3,[r4,#0x10]
        0x0000226a:    61a3        .a      STR      r3,[r4,#0x18]
        0x0000226c:    bd10        ..      POP      {r4,pc}
    $d
        0x0000226e:    0000        ..      DCW    0
        0x00002270:    00009c40    @...    DCD    40000
        0x00002274:    e000e000    ....    DCD    3758153728
    $t
    i.delay_us
    delay_us
        0x00002278:    b510        ..      PUSH     {r4,lr}
        0x0000227a:    4601        .F      MOV      r1,r0
        0x0000227c:    2200        ."      MOVS     r2,#0
        0x0000227e:    e013        ..      B        0x22a8 ; delay_us + 48
        0x00002280:    2328        (#      MOVS     r3,#0x28
        0x00002282:    4c0d        .L      LDR      r4,[pc,#52] ; [0x22b8] = 0xe000e000
        0x00002284:    6163        ca      STR      r3,[r4,#0x14]
        0x00002286:    2305        .#      MOVS     r3,#5
        0x00002288:    6123        #a      STR      r3,[r4,#0x10]
        0x0000228a:    2300        .#      MOVS     r3,#0
        0x0000228c:    61a3        .a      STR      r3,[r4,#0x18]
        0x0000228e:    bf00        ..      NOP      
        0x00002290:    4b09        .K      LDR      r3,[pc,#36] ; [0x22b8] = 0xe000e000
        0x00002292:    6918        .i      LDR      r0,[r3,#0x10]
        0x00002294:    07c3        ..      LSLS     r3,r0,#31
        0x00002296:    0fdb        ..      LSRS     r3,r3,#31
        0x00002298:    2b00        .+      CMP      r3,#0
        0x0000229a:    d004        ..      BEQ      0x22a6 ; delay_us + 46
        0x0000229c:    2301        .#      MOVS     r3,#1
        0x0000229e:    041b        ..      LSLS     r3,r3,#16
        0x000022a0:    4003        .@      ANDS     r3,r3,r0
        0x000022a2:    2b00        .+      CMP      r3,#0
        0x000022a4:    d0f4        ..      BEQ      0x2290 ; delay_us + 24
        0x000022a6:    1c52        R.      ADDS     r2,r2,#1
        0x000022a8:    428a        .B      CMP      r2,r1
        0x000022aa:    d3e9        ..      BCC      0x2280 ; delay_us + 8
        0x000022ac:    2300        .#      MOVS     r3,#0
        0x000022ae:    4c02        .L      LDR      r4,[pc,#8] ; [0x22b8] = 0xe000e000
        0x000022b0:    6123        #a      STR      r3,[r4,#0x10]
        0x000022b2:    61a3        .a      STR      r3,[r4,#0x18]
        0x000022b4:    bd10        ..      POP      {r4,pc}
    $d
        0x000022b6:    0000        ..      DCW    0
        0x000022b8:    e000e000    ....    DCD    3758153728
    $t
    i.fill_uint16_bigend
    fill_uint16_bigend
        0x000022bc:    120a        ..      ASRS     r2,r1,#8
        0x000022be:    7002        .p      STRB     r2,[r0,#0]
        0x000022c0:    7041        Ap      STRB     r1,[r0,#1]
        0x000022c2:    4770        pG      BX       lr
    i.main
    main
        0x000022c4:    b508        ..      PUSH     {r3,lr}
        0x000022c6:    2201        ."      MOVS     r2,#1
        0x000022c8:    492c        ,I      LDR      r1,[pc,#176] ; [0x237c] = 0x1312d0
        0x000022ca:    482d        -H      LDR      r0,[pc,#180] ; [0x2380] = 0x40004000
        0x000022cc:    f7fffe16    ....    BL       SimpleTimer_Init ; 0x1efc
        0x000022d0:    2201        ."      MOVS     r2,#1
        0x000022d2:    492a        *I      LDR      r1,[pc,#168] ; [0x237c] = 0x1312d0
        0x000022d4:    482b        +H      LDR      r0,[pc,#172] ; [0x2384] = 0x40005000
        0x000022d6:    f7fffe11    ....    BL       SimpleTimer_Init ; 0x1efc
        0x000022da:    f7fefd7b    ..{.    BL       GameInit ; 0xdd4
        0x000022de:    f7fefe4b    ..K.    BL       IMU_init ; 0xf78
        0x000022e2:    f7fefee9    ....    BL       OLED_Init ; 0x10b8
        0x000022e6:    f7fffa73    ..s.    BL       PS2_Init ; 0x17d0
        0x000022ea:    f7fffadd    ....    BL       PS2_SetInit ; 0x18a8
        0x000022ee:    f000f85b    ..[.    BL       mp3_Init ; 0x23a8
        0x000022f2:    f7fffb37    ..7.    BL       SG90_Init ; 0x1964
        0x000022f6:    4824        $H      LDR      r0,[pc,#144] ; [0x2388] = 0x16b48
        0x000022f8:    f7fffdea    ....    BL       SetSG90 ; 0x1ed0
        0x000022fc:    f7fffe01    ....    BL       Speech_Init ; 0x1f02
        0x00002300:    207d        }       MOVS     r0,#0x7d
        0x00002302:    00c0        ..      LSLS     r0,r0,#3
        0x00002304:    f7ffff94    ....    BL       delay_ms ; 0x2230
        0x00002308:    2006        .       MOVS     r0,#6
        0x0000230a:    f7fefe57    ..W.    BL       NVIC_EnableIRQ ; 0xfbc
        0x0000230e:    2007        .       MOVS     r0,#7
        0x00002310:    f7fefe54    ..T.    BL       NVIC_EnableIRQ ; 0xfbc
        0x00002314:    2001        .       MOVS     r0,#1
        0x00002316:    230c        .#      MOVS     r3,#0xc
        0x00002318:    a21c        ..      ADR      r2,{pc}+0x74 ; 0x238c
        0x0000231a:    4601        .F      MOV      r1,r0
        0x0000231c:    9000        ..      STR      r0,[sp,#0]
        0x0000231e:    f7fff891    ....    BL       OLED_ShowString ; 0x1444
        0x00002322:    2001        .       MOVS     r0,#1
        0x00002324:    230c        .#      MOVS     r3,#0xc
        0x00002326:    a21b        ..      ADR      r2,{pc}+0x6e ; 0x2394
        0x00002328:    4601        .F      MOV      r1,r0
        0x0000232a:    9000        ..      STR      r0,[sp,#0]
        0x0000232c:    2040        @       MOVS     r0,#0x40
        0x0000232e:    f7fff889    ....    BL       OLED_ShowString ; 0x1444
        0x00002332:    2001        .       MOVS     r0,#1
        0x00002334:    230c        .#      MOVS     r3,#0xc
        0x00002336:    a219        ..      ADR      r2,{pc}+0x66 ; 0x239c
        0x00002338:    211e        .!      MOVS     r1,#0x1e
        0x0000233a:    9000        ..      STR      r0,[sp,#0]
        0x0000233c:    f7fff882    ....    BL       OLED_ShowString ; 0x1444
        0x00002340:    2001        .       MOVS     r0,#1
        0x00002342:    230c        .#      MOVS     r3,#0xc
        0x00002344:    a216        ..      ADR      r2,{pc}+0x5c ; 0x23a0
        0x00002346:    211e        .!      MOVS     r1,#0x1e
        0x00002348:    9000        ..      STR      r0,[sp,#0]
        0x0000234a:    2040        @       MOVS     r0,#0x40
        0x0000234c:    f7fff87a    ..z.    BL       OLED_ShowString ; 0x1444
        0x00002350:    2001        .       MOVS     r0,#1
        0x00002352:    230c        .#      MOVS     r3,#0xc
        0x00002354:    a213        ..      ADR      r2,{pc}+0x50 ; 0x23a4
        0x00002356:    212d        -!      MOVS     r1,#0x2d
        0x00002358:    9000        ..      STR      r0,[sp,#0]
        0x0000235a:    f7fff873    ..s.    BL       OLED_ShowString ; 0x1444
        0x0000235e:    e00b        ..      B        0x2378 ; main + 180
        0x00002360:    f7fff856    ..V.    BL       OLED_ShowScore ; 0x1410
        0x00002364:    f7fff894    ....    BL       OLED_Showgyro ; 0x1490
        0x00002368:    f7feff32    ..2.    BL       OLED_PS2 ; 0x11d0
        0x0000236c:    f7fefe30    ..0.    BL       OLED_Angle ; 0xfd0
        0x00002370:    f7fefc0c    ....    BL       GameBgm ; 0xb8c
        0x00002374:    f7fefac0    ....    BL       Custom2_Map_Control ; 0x8f8
        0x00002378:    e7f2        ..      B        0x2360 ; main + 156
    $d
        0x0000237a:    0000        ..      DCW    0
        0x0000237c:    001312d0    ....    DCD    1250000
        0x00002380:    40004000    .@.@    DCD    1073758208
        0x00002384:    40005000    .P.@    DCD    1073762304
        0x00002388:    00016b48    Hk..    DCD    93000
        0x0000238c:    524f4353    SCOR    DCD    1380926291
        0x00002390:    003a3145    E1:.    DCD    3813701
        0x00002394:    524f4353    SCOR    DCD    1380926291
        0x00002398:    003a3345    E3:.    DCD    3814213
        0x0000239c:    003a584c    LX:.    DCD    3823692
        0x000023a0:    003a594c    LY:.    DCD    3823948
        0x000023a4:    003a6741    Ag:.    DCD    3827521
    $t
    i.mp3_Init
    mp3_Init
        0x000023a8:    b510        ..      PUSH     {r4,lr}
        0x000023aa:    2300        .#      MOVS     r3,#0
        0x000023ac:    2201        ."      MOVS     r2,#1
        0x000023ae:    214b        K!      MOVS     r1,#0x4b
        0x000023b0:    01c9        ..      LSLS     r1,r1,#7
        0x000023b2:    480c        .H      LDR      r0,[pc,#48] ; [0x23e4] = 0x50006000
        0x000023b4:    f7fffef2    ....    BL       UART_Init ; 0x219c
        0x000023b8:    2000        .       MOVS     r0,#0
        0x000023ba:    490b        .I      LDR      r1,[pc,#44] ; [0x23e8] = 0x2000002c
        0x000023bc:    7008        .p      STRB     r0,[r1,#0]
        0x000023be:    490b        .I      LDR      r1,[pc,#44] ; [0x23ec] = 0x2000002d
        0x000023c0:    7008        .p      STRB     r0,[r1,#0]
        0x000023c2:    490b        .I      LDR      r1,[pc,#44] ; [0x23f0] = 0x2000002e
        0x000023c4:    7008        .p      STRB     r0,[r1,#0]
        0x000023c6:    490b        .I      LDR      r1,[pc,#44] ; [0x23f4] = 0x2000002f
        0x000023c8:    7008        .p      STRB     r0,[r1,#0]
        0x000023ca:    490b        .I      LDR      r1,[pc,#44] ; [0x23f8] = 0x20000030
        0x000023cc:    7008        .p      STRB     r0,[r1,#0]
        0x000023ce:    490b        .I      LDR      r1,[pc,#44] ; [0x23fc] = 0x20000031
        0x000023d0:    7008        .p      STRB     r0,[r1,#0]
        0x000023d2:    490b        .I      LDR      r1,[pc,#44] ; [0x2400] = 0x20000032
        0x000023d4:    7008        .p      STRB     r0,[r1,#0]
        0x000023d6:    490b        .I      LDR      r1,[pc,#44] ; [0x2404] = 0x20000033
        0x000023d8:    7008        .p      STRB     r0,[r1,#0]
        0x000023da:    2114        .!      MOVS     r1,#0x14
        0x000023dc:    2006        .       MOVS     r0,#6
        0x000023de:    f000f82f    ../.    BL       mp3_send_cmd ; 0x2440
        0x000023e2:    bd10        ..      POP      {r4,pc}
    $d
        0x000023e4:    50006000    .`.P    DCD    1342201856
        0x000023e8:    2000002c    ,..     DCD    536870956
        0x000023ec:    2000002d    -..     DCD    536870957
        0x000023f0:    2000002e    ...     DCD    536870958
        0x000023f4:    2000002f    /..     DCD    536870959
        0x000023f8:    20000030    0..     DCD    536870960
        0x000023fc:    20000031    1..     DCD    536870961
        0x00002400:    20000032    2..     DCD    536870962
        0x00002404:    20000033    3..     DCD    536870963
    $t
    i.mp3_fill_checksum
    mp3_fill_checksum
        0x00002408:    b510        ..      PUSH     {r4,lr}
        0x0000240a:    4805        .H      LDR      r0,[pc,#20] ; [0x2420] = 0x20000509
        0x0000240c:    f000f80a    ....    BL       mp3_get_checksum ; 0x2424
        0x00002410:    4604        .F      MOV      r4,r0
        0x00002412:    4621        !F      MOV      r1,r4
        0x00002414:    4802        .H      LDR      r0,[pc,#8] ; [0x2420] = 0x20000509
        0x00002416:    1dc0        ..      ADDS     r0,r0,#7
        0x00002418:    f7ffff50    ..P.    BL       fill_uint16_bigend ; 0x22bc
        0x0000241c:    bd10        ..      POP      {r4,pc}
    $d
        0x0000241e:    0000        ..      DCW    0
        0x00002420:    20000509    ...     DCD    536872201
    $t
    i.mp3_get_checksum
    mp3_get_checksum
        0x00002424:    4602        .F      MOV      r2,r0
        0x00002426:    2300        .#      MOVS     r3,#0
        0x00002428:    2101        .!      MOVS     r1,#1
        0x0000242a:    e004        ..      B        0x2436 ; mp3_get_checksum + 18
        0x0000242c:    5c50        P\      LDRB     r0,[r2,r1]
        0x0000242e:    18c0        ..      ADDS     r0,r0,r3
        0x00002430:    b283        ..      UXTH     r3,r0
        0x00002432:    1c48        H.      ADDS     r0,r1,#1
        0x00002434:    b2c1        ..      UXTB     r1,r0
        0x00002436:    2907        .)      CMP      r1,#7
        0x00002438:    dbf8        ..      BLT      0x242c ; mp3_get_checksum + 8
        0x0000243a:    4258        XB      RSBS     r0,r3,#0
        0x0000243c:    b280        ..      UXTH     r0,r0
        0x0000243e:    4770        pG      BX       lr
    i.mp3_send_cmd
    mp3_send_cmd
        0x00002440:    b570        p.      PUSH     {r4-r6,lr}
        0x00002442:    4604        .F      MOV      r4,r0
        0x00002444:    460d        .F      MOV      r5,r1
        0x00002446:    207e        ~       MOVS     r0,#0x7e
        0x00002448:    4909        .I      LDR      r1,[pc,#36] ; [0x2470] = 0x20000509
        0x0000244a:    7008        .p      STRB     r0,[r1,#0]
        0x0000244c:    20ff        .       MOVS     r0,#0xff
        0x0000244e:    7048        Hp      STRB     r0,[r1,#1]
        0x00002450:    2006        .       MOVS     r0,#6
        0x00002452:    7088        .p      STRB     r0,[r1,#2]
        0x00002454:    20ef        .       MOVS     r0,#0xef
        0x00002456:    7248        Hr      STRB     r0,[r1,#9]
        0x00002458:    4608        .F      MOV      r0,r1
        0x0000245a:    70c4        .p      STRB     r4,[r0,#3]
        0x0000245c:    4629        )F      MOV      r1,r5
        0x0000245e:    1d40        @.      ADDS     r0,r0,#5
        0x00002460:    f7ffff2c    ..,.    BL       fill_uint16_bigend ; 0x22bc
        0x00002464:    f7ffffd0    ....    BL       mp3_fill_checksum ; 0x2408
        0x00002468:    f000f804    ....    BL       send_func ; 0x2474
        0x0000246c:    bd70        p.      POP      {r4-r6,pc}
    $d
        0x0000246e:    0000        ..      DCW    0
        0x00002470:    20000509    ...     DCD    536872201
    $t
    i.send_func
    send_func
        0x00002474:    b510        ..      PUSH     {r4,lr}
        0x00002476:    220a        ."      MOVS     r2,#0xa
        0x00002478:    4902        .I      LDR      r1,[pc,#8] ; [0x2484] = 0x20000509
        0x0000247a:    4803        .H      LDR      r0,[pc,#12] ; [0x2488] = 0x50006000
        0x0000247c:    f7fffec0    ....    BL       UART_SendArray ; 0x2200
        0x00002480:    bd10        ..      POP      {r4,pc}
    $d
        0x00002482:    0000        ..      DCW    0
        0x00002484:    20000509    ...     DCD    536872201
        0x00002488:    50006000    .`.P    DCD    1342201856
    $t
    x$fpl$fleqf
    __aeabi_cfcmple
    _fcmple
        0x0000248c:    2301        .#      MOVS     r3,#1
        0x0000248e:    0002        ..      MOVS     r2,r0
        0x00002490:    05db        ..      LSLS     r3,r3,#23
        0x00002492:    430a        .C      ORRS     r2,r2,r1
        0x00002494:    d40d        ..      BMI      0x24b2 ; __aeabi_cfcmple + 38
        0x00002496:    42da        .B      CMN      r2,r3
        0x00002498:    d403        ..      BMI      0x24a2 ; __aeabi_cfcmple + 22
        0x0000249a:    429a        .B      CMP      r2,r3
        0x0000249c:    d407        ..      BMI      0x24ae ; __aeabi_cfcmple + 34
        0x0000249e:    4288        .B      CMP      r0,r1
        0x000024a0:    4770        pG      BX       lr
        0x000024a2:    42d8        .B      CMN      r0,r3
        0x000024a4:    d414        ..      BMI      0x24d0 ; __aeabi_cfcmple + 68
        0x000024a6:    42d9        .B      CMN      r1,r3
        0x000024a8:    d412        ..      BMI      0x24d0 ; __aeabi_cfcmple + 68
        0x000024aa:    4288        .B      CMP      r0,r1
        0x000024ac:    4770        pG      BX       lr
        0x000024ae:    4280        .B      CMP      r0,r0
        0x000024b0:    4770        pG      BX       lr
        0x000024b2:    42da        .B      CMN      r2,r3
        0x000024b4:    d503        ..      BPL      0x24be ; __aeabi_cfcmple + 50
        0x000024b6:    429a        .B      CMP      r2,r3
        0x000024b8:    d5f9        ..      BPL      0x24ae ; __aeabi_cfcmple + 34
        0x000024ba:    4281        .B      CMP      r1,r0
        0x000024bc:    4770        pG      BX       lr
        0x000024be:    005b        [.      LSLS     r3,r3,#1
        0x000024c0:    0042        B.      LSLS     r2,r0,#1
        0x000024c2:    42da        .B      CMN      r2,r3
        0x000024c4:    d204        ..      BCS      0x24d0 ; __aeabi_cfcmple + 68
        0x000024c6:    004a        J.      LSLS     r2,r1,#1
        0x000024c8:    42da        .B      CMN      r2,r3
        0x000024ca:    d201        ..      BCS      0x24d0 ; __aeabi_cfcmple + 68
        0x000024cc:    4281        .B      CMP      r1,r0
        0x000024ce:    4770        pG      BX       lr
        0x000024d0:    b510        ..      PUSH     {r4,lr}
        0x000024d2:    4a02        .J      LDR      r2,[pc,#8] ; [0x24dc] = 0x4160009
        0x000024d4:    f7fef836    ..6.    BL       __fpl_fcmp_InfNaN ; 0x544
        0x000024d8:    bd10        ..      POP      {r4,pc}
        0x000024da:    bf00        ..      NOP      
    $d
        0x000024dc:    04160009    ....    DCD    68550665
    $t
    x$fpl$fmul
    __aeabi_fmul
    _fmul
        0x000024e0:    b570        p.      PUSH     {r4-r6,lr}
        0x000024e2:    0042        B.      LSLS     r2,r0,#1
        0x000024e4:    4164        dA      ADCS     r4,r4,r4
        0x000024e6:    004b        K.      LSLS     r3,r1,#1
        0x000024e8:    415c        \A      ADCS     r4,r4,r3
        0x000024ea:    0e12        ..      LSRS     r2,r2,#24
        0x000024ec:    d039        9.      BEQ      0x2562 ; __aeabi_fmul + 130
        0x000024ee:    0e1b        ..      LSRS     r3,r3,#24
        0x000024f0:    d038        8.      BEQ      0x2564 ; __aeabi_fmul + 132
        0x000024f2:    2aff        .*      CMP      r2,#0xff
        0x000024f4:    d03c        <.      BEQ      0x2570 ; __aeabi_fmul + 144
        0x000024f6:    2bff        .+      CMP      r3,#0xff
        0x000024f8:    d03a        :.      BEQ      0x2570 ; __aeabi_fmul + 144
        0x000024fa:    0240        @.      LSLS     r0,r0,#9
        0x000024fc:    0249        I.      LSLS     r1,r1,#9
        0x000024fe:    0a40        @.      LSRS     r0,r0,#9
        0x00002500:    0a49        I.      LSRS     r1,r1,#9
        0x00002502:    0006        ..      MOVS     r6,r0
        0x00002504:    1845        E.      ADDS     r5,r0,r1
        0x00002506:    434e        NC      MULS     r6,r1,r6
        0x00002508:    0a00        ..      LSRS     r0,r0,#8
        0x0000250a:    0a09        ..      LSRS     r1,r1,#8
        0x0000250c:    18d2        ..      ADDS     r2,r2,r3
        0x0000250e:    4348        HC      MULS     r0,r1,r0
        0x00002510:    01ed        ..      LSLS     r5,r5,#7
        0x00002512:    3a7f        .:      SUBS     r2,r2,#0x7f
        0x00002514:    0401        ..      LSLS     r1,r0,#16
        0x00002516:    1a73        s.      SUBS     r3,r6,r1
        0x00002518:    1940        @.      ADDS     r0,r0,r5
        0x0000251a:    0c19        ..      LSRS     r1,r3,#16
        0x0000251c:    1843        C.      ADDS     r3,r0,r1
        0x0000251e:    0f99        ..      LSRS     r1,r3,#30
        0x00002520:    d004        ..      BEQ      0x252c ; __aeabi_fmul + 76
        0x00002522:    2101        .!      MOVS     r1,#1
        0x00002524:    085b        [.      LSRS     r3,r3,#1
        0x00002526:    0749        I.      LSLS     r1,r1,#29
        0x00002528:    1a5b        [.      SUBS     r3,r3,r1
        0x0000252a:    1c52        R.      ADDS     r2,r2,#1
        0x0000252c:    09d8        ..      LSRS     r0,r3,#7
        0x0000252e:    d304        ..      BCC      0x253a ; __aeabi_fmul + 90
        0x00002530:    1c40        @.      ADDS     r0,r0,#1
        0x00002532:    03f5        ..      LSLS     r5,r6,#15
        0x00002534:    d101        ..      BNE      0x253a ; __aeabi_fmul + 90
        0x00002536:    069d        ..      LSLS     r5,r3,#26
        0x00002538:    d007        ..      BEQ      0x254a ; __aeabi_fmul + 106
        0x0000253a:    2aff        .*      CMP      r2,#0xff
        0x0000253c:    d208        ..      BCS      0x2550 ; __aeabi_fmul + 112
        0x0000253e:    05d5        ..      LSLS     r5,r2,#23
        0x00002540:    d006        ..      BEQ      0x2550 ; __aeabi_fmul + 112
        0x00002542:    07e4        ..      LSLS     r4,r4,#31
        0x00002544:    4320         C      ORRS     r0,r0,r4
        0x00002546:    1940        @.      ADDS     r0,r0,r5
        0x00002548:    bd70        p.      POP      {r4-r6,pc}
        0x0000254a:    2501        .%      MOVS     r5,#1
        0x0000254c:    43a8        .C      BICS     r0,r0,r5
        0x0000254e:    e7f4        ..      B        0x253a ; __aeabi_fmul + 90
        0x00002550:    2a00        .*      CMP      r2,#0
        0x00002552:    dc01        ..      BGT      0x2558 ; __aeabi_fmul + 120
        0x00002554:    07e0        ..      LSLS     r0,r4,#31
        0x00002556:    bd70        p.      POP      {r4-r6,pc}
        0x00002558:    0224        $.      LSLS     r4,r4,#8
        0x0000255a:    20ff        .       MOVS     r0,#0xff
        0x0000255c:    4320         C      ORRS     r0,r0,r4
        0x0000255e:    05c0        ..      LSLS     r0,r0,#23
        0x00002560:    bd70        p.      POP      {r4-r6,pc}
        0x00002562:    0e1b        ..      LSRS     r3,r3,#24
        0x00002564:    2aff        .*      CMP      r2,#0xff
        0x00002566:    d003        ..      BEQ      0x2570 ; __aeabi_fmul + 144
        0x00002568:    2bff        .+      CMP      r3,#0xff
        0x0000256a:    d001        ..      BEQ      0x2570 ; __aeabi_fmul + 144
        0x0000256c:    07e0        ..      LSLS     r0,r4,#31
        0x0000256e:    bd70        p.      POP      {r4-r6,pc}
        0x00002570:    26ff        .&      MOVS     r6,#0xff
        0x00002572:    0045        E.      LSLS     r5,r0,#1
        0x00002574:    0636        6.      LSLS     r6,r6,#24
        0x00002576:    42b5        .B      CMP      r5,r6
        0x00002578:    d806        ..      BHI      0x2588 ; __aeabi_fmul + 168
        0x0000257a:    004d        M.      LSLS     r5,r1,#1
        0x0000257c:    42b5        .B      CMP      r5,r6
        0x0000257e:    d803        ..      BHI      0x2588 ; __aeabi_fmul + 168
        0x00002580:    18d2        ..      ADDS     r2,r2,r3
        0x00002582:    2aff        .*      CMP      r2,#0xff
        0x00002584:    d000        ..      BEQ      0x2588 ; __aeabi_fmul + 168
        0x00002586:    e7e7        ..      B        0x2558 ; __aeabi_fmul + 120
        0x00002588:    4800        .H      LDR      r0,[pc,#0] ; [0x258c] = 0x7fc00000
        0x0000258a:    bd70        p.      POP      {r4-r6,pc}
    $d
        0x0000258c:    7fc00000    ....    DCD    2143289344
    $t
    x$fpl$frleqf
    __aeabi_cfrcmple
    _frcmple
        0x00002590:    2301        .#      MOVS     r3,#1
        0x00002592:    000a        ..      MOVS     r2,r1
        0x00002594:    05db        ..      LSLS     r3,r3,#23
        0x00002596:    4302        .C      ORRS     r2,r2,r0
        0x00002598:    d40d        ..      BMI      0x25b6 ; __aeabi_cfrcmple + 38
        0x0000259a:    42da        .B      CMN      r2,r3
        0x0000259c:    d403        ..      BMI      0x25a6 ; __aeabi_cfrcmple + 22
        0x0000259e:    429a        .B      CMP      r2,r3
        0x000025a0:    d407        ..      BMI      0x25b2 ; __aeabi_cfrcmple + 34
        0x000025a2:    4281        .B      CMP      r1,r0
        0x000025a4:    4770        pG      BX       lr
        0x000025a6:    42d9        .B      CMN      r1,r3
        0x000025a8:    d414        ..      BMI      0x25d4 ; __aeabi_cfrcmple + 68
        0x000025aa:    42d8        .B      CMN      r0,r3
        0x000025ac:    d412        ..      BMI      0x25d4 ; __aeabi_cfrcmple + 68
        0x000025ae:    4281        .B      CMP      r1,r0
        0x000025b0:    4770        pG      BX       lr
        0x000025b2:    4289        .B      CMP      r1,r1
        0x000025b4:    4770        pG      BX       lr
        0x000025b6:    42da        .B      CMN      r2,r3
        0x000025b8:    d503        ..      BPL      0x25c2 ; __aeabi_cfrcmple + 50
        0x000025ba:    429a        .B      CMP      r2,r3
        0x000025bc:    d5f9        ..      BPL      0x25b2 ; __aeabi_cfrcmple + 34
        0x000025be:    4288        .B      CMP      r0,r1
        0x000025c0:    4770        pG      BX       lr
        0x000025c2:    005b        [.      LSLS     r3,r3,#1
        0x000025c4:    004a        J.      LSLS     r2,r1,#1
        0x000025c6:    42da        .B      CMN      r2,r3
        0x000025c8:    d204        ..      BCS      0x25d4 ; __aeabi_cfrcmple + 68
        0x000025ca:    0042        B.      LSLS     r2,r0,#1
        0x000025cc:    42da        .B      CMN      r2,r3
        0x000025ce:    d201        ..      BCS      0x25d4 ; __aeabi_cfrcmple + 68
        0x000025d0:    4288        .B      CMP      r0,r1
        0x000025d2:    4770        pG      BX       lr
        0x000025d4:    4048        H@      EORS     r0,r0,r1
        0x000025d6:    4041        A@      EORS     r1,r1,r0
        0x000025d8:    b510        ..      PUSH     {r4,lr}
        0x000025da:    4a02        .J      LDR      r2,[pc,#8] ; [0x25e4] = 0x4160009
        0x000025dc:    4048        H@      EORS     r0,r0,r1
        0x000025de:    f7fdffb1    ....    BL       __fpl_fcmp_InfNaN ; 0x544
        0x000025e2:    bd10        ..      POP      {r4,pc}
    $d
        0x000025e4:    04160009    ....    DCD    68550665
    $d.realdata
    .constdata
    x$fpl$usenofp
    __I$use$fp
    asc2_0806
        0x000025e8:    00000000    ....    DCD    0
        0x000025ec:    00000000    ....    DCD    0
        0x000025f0:    00002f00    ./..    DCD    12032
        0x000025f4:    00070000    ....    DCD    458752
        0x000025f8:    14000007    ....    DCD    335544327
        0x000025fc:    147f147f    ....    DCD    343872639
        0x00002600:    7f2a2400    .$*.    DCD    2133468160
        0x00002604:    6200122a    *..b    DCD    1644171818
        0x00002608:    23130864    d..#    DCD    588449892
        0x0000260c:    55493600    .6IU    DCD    1430861312
        0x00002610:    00005022    "P..    DCD    20514
        0x00002614:    00000305    ....    DCD    773
        0x00002618:    221c0000    ..."    DCD    572260352
        0x0000261c:    00000041    A...    DCD    65
        0x00002620:    001c2241    A"..    DCD    1843777
        0x00002624:    3e081400    ...>    DCD    1040716800
        0x00002628:    08001408    ....    DCD    134222856
        0x0000262c:    08083e08    .>..    DCD    134757896
        0x00002630:    a0000000    ....    DCD    2684354560
        0x00002634:    08000060    `...    DCD    134217824
        0x00002638:    08080808    ....    DCD    134744072
        0x0000263c:    60600000    ..``    DCD    1616904192
        0x00002640:    20000000    ...     DCD    536870912
        0x00002644:    02040810    ....    DCD    33818640
        0x00002648:    49513e00    .>QI    DCD    1230061056
        0x0000264c:    00003e45    E>..    DCD    15941
        0x00002650:    00407f42    B.@.    DCD    4226882
        0x00002654:    51614200    .BaQ    DCD    1365328384
        0x00002658:    21004649    IF.!    DCD    553666121
        0x0000265c:    314b4541    AEK1    DCD    827016513
        0x00002660:    12141800    ....    DCD    303306752
        0x00002664:    2700107f    ...'    DCD    654315647
        0x00002668:    39454545    EEE9    DCD    960841029
        0x0000266c:    494a3c00    .<JI    DCD    1229601792
        0x00002670:    01003049    I0..    DCD    16789577
        0x00002674:    03050971    q...    DCD    50661745
        0x00002678:    49493600    .6II    DCD    1229534720
        0x0000267c:    06003649    I6..    DCD    100677193
        0x00002680:    1e294949    II).    DCD    506022217
        0x00002684:    36360000    ..66    DCD    909508608
        0x00002688:    00000000    ....    DCD    0
        0x0000268c:    00003656    V6..    DCD    13910
        0x00002690:    22140800    ..."    DCD    571738112
        0x00002694:    14000041    A...    DCD    335544385
        0x00002698:    14141414    ....    DCD    336860180
        0x0000269c:    22410000    ..A"    DCD    574685184
        0x000026a0:    02000814    ....    DCD    33556500
        0x000026a4:    06095101    .Q..    DCD    101273857
        0x000026a8:    59493200    .2IY    DCD    1497969152
        0x000026ac:    7c003e51    Q>.|    DCD    2080390737
        0x000026b0:    7c121112    ...|    DCD    2081558802
        0x000026b4:    49497f00    ..II    DCD    1229553408
        0x000026b8:    3e003649    I6.>    DCD    1040201289
        0x000026bc:    22414141    AAA"    DCD    574701889
        0x000026c0:    41417f00    ..AA    DCD    1094811392
        0x000026c4:    7f001c22    "...    DCD    2130713634
        0x000026c8:    41494949    IIIA    DCD    1095321929
        0x000026cc:    09097f00    ....    DCD    151617280
        0x000026d0:    3e000109    ...>    DCD    1040187657
        0x000026d4:    7a494941    AIIz    DCD    2051623233
        0x000026d8:    08087f00    ....    DCD    134774528
        0x000026dc:    00007f08    ....    DCD    32520
        0x000026e0:    00417f41    A.A.    DCD    4292417
        0x000026e4:    41402000    . @A    DCD    1094721536
        0x000026e8:    7f00013f    ?...    DCD    2130706751
        0x000026ec:    41221408    .."A    DCD    1092752392
        0x000026f0:    40407f00    ..@@    DCD    1077968640
        0x000026f4:    7f004040    @@..    DCD    2130722880
        0x000026f8:    7f020c02    ....    DCD    2130840578
        0x000026fc:    08047f00    ....    DCD    134512384
        0x00002700:    3e007f10    ...>    DCD    1040219920
        0x00002704:    3e414141    AAA>    DCD    1044463937
        0x00002708:    09097f00    ....    DCD    151617280
        0x0000270c:    3e000609    ...>    DCD    1040188937
        0x00002710:    5e215141    AQ!^    DCD    1579241793
        0x00002714:    19097f00    ....    DCD    420052736
        0x00002718:    46004629    )F.F    DCD    1174423081
        0x0000271c:    31494949    III1    DCD    826886473
        0x00002720:    7f010100    ....    DCD    2130772224
        0x00002724:    3f000101    ...?    DCD    1056964865
        0x00002728:    3f404040    @@@?    DCD    1061175360
        0x0000272c:    40201f00    .. @    DCD    1075846912
        0x00002730:    3f001f20     ..?    DCD    1056972576
        0x00002734:    3f403840    @8@?    DCD    1061173312
        0x00002738:    08146300    .c..    DCD    135553792
        0x0000273c:    07006314    .c..    DCD    117465876
        0x00002740:    07087008    .p..    DCD    117993480
        0x00002744:    49516100    .aQI    DCD    1230070016
        0x00002748:    00004345    EC..    DCD    17221
        0x0000274c:    0041417f    .AA.    DCD    4276607
        0x00002750:    552a5500    .U*U    DCD    1428837632
        0x00002754:    0000552a    *U..    DCD    21802
        0x00002758:    007f4141    AA..    DCD    8339777
        0x0000275c:    01020400    ....    DCD    16909312
        0x00002760:    40000402    ...@    DCD    1073742850
        0x00002764:    40404040    @@@@    DCD    1077952576
        0x00002768:    02010000    ....    DCD    33619968
        0x0000276c:    20000004    ...     DCD    536870916
        0x00002770:    78545454    TTTx    DCD    2018792532
        0x00002774:    44487f00    ..HD    DCD    1145601792
        0x00002778:    38003844    D8.8    DCD    939538500
        0x0000277c:    20444444    DDD     DCD    541344836
        0x00002780:    44443800    .8DD    DCD    1145321472
        0x00002784:    38007f48    H..8    DCD    939556680
        0x00002788:    18545454    TTT.    DCD    408179796
        0x0000278c:    097e0800    ..~.    DCD    159254528
        0x00002790:    18000201    ....    DCD    402653697
        0x00002794:    7ca4a4a4    ...|    DCD    2091164836
        0x00002798:    04087f00    ....    DCD    67665664
        0x0000279c:    00007804    .x..    DCD    30724
        0x000027a0:    00407d44    D}@.    DCD    4226372
        0x000027a4:    84804000    .@..    DCD    2222997504
        0x000027a8:    7f00007d    }...    DCD    2130706557
        0x000027ac:    00442810    .(D.    DCD    4466704
        0x000027b0:    7f410000    ..A.    DCD    2134966272
        0x000027b4:    7c000040    @..|    DCD    2080374848
        0x000027b8:    78041804    ...x    DCD    2013534212
        0x000027bc:    04087c00    .|..    DCD    67664896
        0x000027c0:    38007804    .x.8    DCD    939554820
        0x000027c4:    38444444    DDD8    DCD    943998020
        0x000027c8:    2424fc00    ..$$    DCD    606403584
        0x000027cc:    18001824    $...    DCD    402659364
        0x000027d0:    fc182424    $$..    DCD    4229440548
        0x000027d4:    04087c00    .|..    DCD    67664896
        0x000027d8:    48000804    ...H    DCD    1207961604
        0x000027dc:    20545454    TTT     DCD    542397524
        0x000027e0:    443f0400    ..?D    DCD    1144980480
        0x000027e4:    3c002040    @ .<    DCD    1006641216
        0x000027e8:    7c204040    @@ |    DCD    2082488384
        0x000027ec:    40201c00    .. @    DCD    1075846144
        0x000027f0:    3c001c20     ..<    DCD    1006640160
        0x000027f4:    3c403040    @0@<    DCD    1010839616
        0x000027f8:    10284400    .D(.    DCD    271074304
        0x000027fc:    1c004428    (D..    DCD    469779496
        0x00002800:    7ca0a0a0    ...|    DCD    2090901664
        0x00002804:    54644400    .DdT    DCD    1415857152
        0x00002808:    1414444c    LD..    DCD    336872524
        0x0000280c:    14141414    ....    DCD    336860180
    asc2_1206
        0x00002810:    00000000    ....    DCD    0
        0x00002814:    00000000    ....    DCD    0
        0x00002818:    00000000    ....    DCD    0
        0x0000281c:    00fc0000    ....    DCD    16515072
        0x00002820:    00000000    ....    DCD    0
        0x00002824:    00000002    ....    DCD    2
        0x00002828:    0c020c00    ....    DCD    201460736
        0x0000282c:    00000002    ....    DCD    2
        0x00002830:    00000000    ....    DCD    0
        0x00002834:    d0bcd090    ....    DCD    3502035088
        0x00002838:    030090bc    ....    DCD    50368700
        0x0000283c:    00000300    ....    DCD    768
        0x00002840:    44fe2418    .$.D    DCD    1157506072
        0x00002844:    0203008c    ....    DCD    33751180
        0x00002848:    00010207    ....    DCD    66055
        0x0000284c:    b0d82418    .$..    DCD    2966955032
        0x00002850:    0300804c    L...    DCD    50364492
        0x00002854:    01020100    ....    DCD    16908544
        0x00002858:    38e438c0    .8.8    DCD    954480832
        0x0000285c:    020100e0    ....    DCD    33620192
        0x00002860:    02020102    ....    DCD    33685762
        0x00002864:    00000608    ....    DCD    1544
        0x00002868:    00000000    ....    DCD    0
        0x0000286c:    00000000    ....    DCD    0
        0x00002870:    f8000000    ....    DCD    4160749568
        0x00002874:    00000204    ....    DCD    516
        0x00002878:    04020100    ....    DCD    67240192
        0x0000287c:    f8040200    ....    DCD    4161012224
        0x00002880:    04000000    ....    DCD    67108864
        0x00002884:    00000102    ....    DCD    258
        0x00002888:    60f86090    .`.`    DCD    1626890384
        0x0000288c:    00000090    ....    DCD    144
        0x00002890:    00000001    ....    DCD    1
        0x00002894:    20fc2020      .     DCD    553394208
        0x00002898:    00000020     ...    DCD    32
        0x0000289c:    00000001    ....    DCD    1
        0x000028a0:    00000000    ....    DCD    0
        0x000028a4:    06080000    ....    DCD    101187584
        0x000028a8:    00000000    ....    DCD    0
        0x000028ac:    20202020            DCD    538976288
        0x000028b0:    00000020     ...    DCD    32
        0x000028b4:    00000000    ....    DCD    0
        0x000028b8:    00000000    ....    DCD    0
        0x000028bc:    02000000    ....    DCD    33554432
        0x000028c0:    00000000    ....    DCD    0
        0x000028c4:    1c608000    ..`.    DCD    476086272
        0x000028c8:    03040002    ....    DCD    50593794
        0x000028cc:    00000000    ....    DCD    0
        0x000028d0:    040404f8    ....    DCD    67372280
        0x000028d4:    020100f8    ....    DCD    33620216
        0x000028d8:    00010202    ....    DCD    66050
        0x000028dc:    00fc0800    ....    DCD    16517120
        0x000028e0:    02000000    ....    DCD    33554432
        0x000028e4:    00000203    ....    DCD    515
        0x000028e8:    24448418    ..D$    DCD    608470040
        0x000028ec:    02030018    ....    DCD    33751064
        0x000028f0:    00020202    ....    DCD    131586
        0x000028f4:    24240408    ..$$    DCD    606340104
        0x000028f8:    020100d8    ....    DCD    33620184
        0x000028fc:    00010202    ....    DCD    66050
        0x00002900:    fc88b040    @...    DCD    4236816448
        0x00002904:    00000080    ....    DCD    128
        0x00002908:    00020300    ....    DCD    131840
        0x0000290c:    2424243c    <$$$    DCD    606348348
        0x00002910:    020100c4    ....    DCD    33620164
        0x00002914:    00010202    ....    DCD    66050
        0x00002918:    2c2424f8    .$$,    DCD    740566264
        0x0000291c:    020100c0    ....    DCD    33620160
        0x00002920:    00010202    ....    DCD    66050
        0x00002924:    1ce4040c    ....    DCD    484705292
        0x00002928:    00000004    ....    DCD    4
        0x0000292c:    00000003    ....    DCD    3
        0x00002930:    242424d8    .$$$    DCD    606348504
        0x00002934:    020100d8    ....    DCD    33620184
        0x00002938:    00010202    ....    DCD    66050
        0x0000293c:    44444438    8DDD    DCD    1145324600
        0x00002940:    030000f8    ....    DCD    50331896
        0x00002944:    00010202    ....    DCD    66050
        0x00002948:    00100000    ....    DCD    1048576
        0x0000294c:    00000000    ....    DCD    0
        0x00002950:    00000002    ....    DCD    2
        0x00002954:    00200000    .. .    DCD    2097152
        0x00002958:    00000000    ....    DCD    0
        0x0000295c:    00000006    ....    DCD    6
        0x00002960:    88502000    . P.    DCD    2286952448
        0x00002964:    00000204    ....    DCD    516
        0x00002968:    02010000    ....    DCD    33619968
        0x0000296c:    90909090    ....    DCD    2425393296
        0x00002970:    00000090    ....    DCD    144
        0x00002974:    00000000    ....    DCD    0
        0x00002978:    88040200    ....    DCD    2281964032
        0x0000297c:    02002050    P ..    DCD    33562704
        0x00002980:    00000001    ....    DCD    1
        0x00002984:    24c40418    ...$    DCD    616825880
        0x00002988:    00000018    ....    DCD    24
        0x0000298c:    00000002    ....    DCD    2
        0x00002990:    94e404f8    ....    DCD    2497971448
        0x00002994:    020100f8    ....    DCD    33620216
        0x00002998:    00020202    ....    DCD    131586
        0x0000299c:    f09ce000    ....    DCD    4036812800
        0x000029a0:    03020080    ....    DCD    50462848
        0x000029a4:    02030000    ....    DCD    33751040
        0x000029a8:    2424fc04    ..$$    DCD    606403588
        0x000029ac:    030200d8    ....    DCD    50462936
        0x000029b0:    00010202    ....    DCD    66050
        0x000029b4:    040404f8    ....    DCD    67372280
        0x000029b8:    0201000c    ....    DCD    33619980
        0x000029bc:    00010202    ....    DCD    66050
        0x000029c0:    0404fc04    ....    DCD    67435524
        0x000029c4:    030200f8    ....    DCD    50462968
        0x000029c8:    00010202    ....    DCD    66050
        0x000029cc:    7424fc04    ..$t    DCD    1948580868
        0x000029d0:    0302000c    ....    DCD    50462732
        0x000029d4:    00030202    ....    DCD    197122
        0x000029d8:    7424fc04    ..$t    DCD    1948580868
        0x000029dc:    0302000c    ....    DCD    50462732
        0x000029e0:    00000002    ....    DCD    2
        0x000029e4:    440408f0    ...D    DCD    1141115120
        0x000029e8:    010040cc    .@..    DCD    16793804
        0x000029ec:    00010202    ....    DCD    66050
        0x000029f0:    2020fc04    ..      DCD    539032580
        0x000029f4:    030204fc    ....    DCD    50463996
        0x000029f8:    02030000    ....    DCD    33751040
        0x000029fc:    04fc0404    ....    DCD    83624964
        0x00002a00:    02020004    ....    DCD    33685508
        0x00002a04:    00020203    ....    DCD    131587
        0x00002a08:    fc040400    ....    DCD    4228121600
        0x00002a0c:    04060404    ....    DCD    67503108
        0x00002a10:    00000304    ....    DCD    772
        0x00002a14:    d024fc04    ..$.    DCD    3492084740
        0x00002a18:    0302040c    ....    DCD    50463756
        0x00002a1c:    02030002    ....    DCD    33751042
        0x00002a20:    0004fc04    ....    DCD    326660
        0x00002a24:    03020000    ....    DCD    50462720
        0x00002a28:    03020202    ....    DCD    50463234
        0x00002a2c:    3cc03cfc    .<.<    DCD    1019231484
        0x00002a30:    000300fc    ....    DCD    196860
        0x00002a34:    00030003    ....    DCD    196611
        0x00002a38:    c430fc04    ..0.    DCD    3291544580
        0x00002a3c:    030204fc    ....    DCD    50463996
        0x00002a40:    00030002    ....    DCD    196610
        0x00002a44:    040404f8    ....    DCD    67372280
        0x00002a48:    020100f8    ....    DCD    33620216
        0x00002a4c:    00010202    ....    DCD    66050
        0x00002a50:    2424fc04    ..$$    DCD    606403588
        0x00002a54:    03020018    ....    DCD    50462744
        0x00002a58:    00000002    ....    DCD    2
        0x00002a5c:    048484f8    ....    DCD    75793656
        0x00002a60:    020100f8    ....    DCD    33620216
        0x00002a64:    00050702    ....    DCD    329474
        0x00002a68:    6424fc04    ..$d    DCD    1680145412
        0x00002a6c:    03020098    ....    DCD    50462872
        0x00002a70:    02030002    ....    DCD    33751042
        0x00002a74:    44242418    .$$D    DCD    1143219224
        0x00002a78:    0203008c    ....    DCD    33751180
        0x00002a7c:    00010202    ....    DCD    66050
        0x00002a80:    04fc040c    ....    DCD    83624972
        0x00002a84:    0200000c    ....    DCD    33554444
        0x00002a88:    00000203    ....    DCD    515
        0x00002a8c:    0000fc04    ....    DCD    64516
        0x00002a90:    010004fc    ....    DCD    16778492
        0x00002a94:    00010202    ....    DCD    66050
        0x00002a98:    e0807c04    .|..    DCD    3766516740
        0x00002a9c:    0000041c    ....    DCD    1052
        0x00002aa0:    00000003    ....    DCD    3
        0x00002aa4:    e03ce01c    ..<.    DCD    3762085916
        0x00002aa8:    0300001c    ....    DCD    50331676
        0x00002aac:    00000300    ....    DCD    768
        0x00002ab0:    9c609c04    ..`.    DCD    2623577092
        0x00002ab4:    03020004    ....    DCD    50462724
        0x00002ab8:    00020300    ....    DCD    131840
        0x00002abc:    1ce01c04    ....    DCD    484449284
        0x00002ac0:    02000004    ....    DCD    33554436
        0x00002ac4:    00000203    ....    DCD    515
        0x00002ac8:    1c64840c    ..d.    DCD    476349452
        0x00002acc:    03020004    ....    DCD    50462724
        0x00002ad0:    00030202    ....    DCD    197122
        0x00002ad4:    02fe0000    ....    DCD    50200576
        0x00002ad8:    00000002    ....    DCD    2
        0x00002adc:    00040407    ....    DCD    263175
        0x00002ae0:    c0300e00    ..0.    DCD    3224374784
        0x00002ae4:    00000000    ....    DCD    0
        0x00002ae8:    00020100    ....    DCD    131328
        0x00002aec:    fe020200    ....    DCD    4261544448
        0x00002af0:    04000000    ....    DCD    67108864
        0x00002af4:    00000704    ....    DCD    1796
        0x00002af8:    04020400    ....    DCD    67240960
        0x00002afc:    00000000    ....    DCD    0
        0x00002b00:    00000000    ....    DCD    0
        0x00002b04:    00000000    ....    DCD    0
        0x00002b08:    08080000    ....    DCD    134742016
        0x00002b0c:    08080808    ....    DCD    134744072
        0x00002b10:    00020000    ....    DCD    131072
        0x00002b14:    00000000    ....    DCD    0
        0x00002b18:    00000000    ....    DCD    0
        0x00002b1c:    a0a04000    .@..    DCD    2694856704
        0x00002b20:    010000c0    ....    DCD    16777408
        0x00002b24:    02030202    ....    DCD    33751554
        0x00002b28:    2020fc04    ..      DCD    539032580
        0x00002b2c:    030000c0    ....    DCD    50331840
        0x00002b30:    00010202    ....    DCD    66050
        0x00002b34:    2020c000    ..      DCD    539017216
        0x00002b38:    01000060    `...    DCD    16777312
        0x00002b3c:    00020202    ....    DCD    131586
        0x00002b40:    2420c000    .. $    DCD    606126080
        0x00002b44:    010000fc    ....    DCD    16777468
        0x00002b48:    02030202    ....    DCD    33751554
        0x00002b4c:    a0a0c000    ....    DCD    2694889472
        0x00002b50:    010000c0    ....    DCD    16777408
        0x00002b54:    00020202    ....    DCD    131586
        0x00002b58:    24f82000    . .$    DCD    620240896
        0x00002b5c:    02000424    $...    DCD    33555492
        0x00002b60:    00020203    ....    DCD    131587
        0x00002b64:    a0a04000    .@..    DCD    2694856704
        0x00002b68:    07002060    ` ..    DCD    117448800
        0x00002b6c:    040a0a0a    ....    DCD    67766794
        0x00002b70:    2020fc04    ..      DCD    539032580
        0x00002b74:    030200c0    ....    DCD    50462912
        0x00002b78:    02030002    ....    DCD    33751042
        0x00002b7c:    00e42000    . ..    DCD    14950400
        0x00002b80:    02000000    ....    DCD    33554432
        0x00002b84:    00000203    ....    DCD    515
        0x00002b88:    e4200000    .. .    DCD    3827302400
        0x00002b8c:    08080000    ....    DCD    134742016
        0x00002b90:    00000708    ....    DCD    1800
        0x00002b94:    e080fc04    ....    DCD    3766549508
        0x00002b98:    03022020      ..    DCD    50470944
        0x00002b9c:    02030002    ....    DCD    33751042
        0x00002ba0:    00fc0404    ....    DCD    16516100
        0x00002ba4:    02020000    ....    DCD    33685504
        0x00002ba8:    00020203    ....    DCD    131587
        0x00002bac:    20e020e0    . .     DCD    551559392
        0x00002bb0:    000300c0    ....    DCD    196800
        0x00002bb4:    00030003    ....    DCD    196611
        0x00002bb8:    2020e020     .      DCD    539025440
        0x00002bbc:    030200c0    ....    DCD    50462912
        0x00002bc0:    02030002    ....    DCD    33751042
        0x00002bc4:    2020c000    ..      DCD    539017216
        0x00002bc8:    010000c0    ....    DCD    16777408
        0x00002bcc:    00010202    ....    DCD    66050
        0x00002bd0:    2020e020     .      DCD    539025440
        0x00002bd4:    0f0800c0    ....    DCD    252182720
        0x00002bd8:    0001020a    ....    DCD    66058
        0x00002bdc:    2020c000    ..      DCD    539017216
        0x00002be0:    010000e0    ....    DCD    16777440
        0x00002be4:    080f0a02    ....    DCD    135203330
        0x00002be8:    2040e020     .@     DCD    541122592
        0x00002bec:    03020020     ...    DCD    50462752
        0x00002bf0:    00000002    ....    DCD    2
        0x00002bf4:    a0a06000    .`..    DCD    2694864896
        0x00002bf8:    02000020     ...    DCD    33554464
        0x00002bfc:    00030202    ....    DCD    197122
        0x00002c00:    20f82000    . .     DCD    553132032
        0x00002c04:    00000000    ....    DCD    0
        0x00002c08:    00020201    ....    DCD    131585
        0x00002c0c:    2000e020     ..     DCD    536928288
        0x00002c10:    010000e0    ....    DCD    16777440
        0x00002c14:    02030202    ....    DCD    33751554
        0x00002c18:    8020e020     . .    DCD    2149638176
        0x00002c1c:    00002060    ` ..    DCD    8288
        0x00002c20:    00000103    ....    DCD    259
        0x00002c24:    80e08060    `...    DCD    2162196576
        0x00002c28:    03000060    `...    DCD    50331744
        0x00002c2c:    00000300    ....    DCD    768
        0x00002c30:    60806020     `.`    DCD    1619025952
        0x00002c34:    03020020     ...    DCD    50462752
        0x00002c38:    00020300    ....    DCD    131840
        0x00002c3c:    8020e020     . .    DCD    2149638176
        0x00002c40:    08082060    ` ..    DCD    134750304
        0x00002c44:    00000107    ....    DCD    263
        0x00002c48:    60a02000    . .`    DCD    1621106688
        0x00002c4c:    02000020     ...    DCD    33554464
        0x00002c50:    00020203    ....    DCD    131587
        0x00002c54:    de200000    .. .    DCD    3726639104
        0x00002c58:    00000002    ....    DCD    2
        0x00002c5c:    00040700    ....    DCD    263936
        0x00002c60:    ff000000    ....    DCD    4278190080
        0x00002c64:    00000000    ....    DCD    0
        0x00002c68:    00000f00    ....    DCD    3840
        0x00002c6c:    20de0200    ...     DCD    551420416
        0x00002c70:    04000000    ....    DCD    67108864
        0x00002c74:    00000007    ....    DCD    7
        0x00002c78:    04020102    ....    DCD    67240194
        0x00002c7c:    00000204    ....    DCD    516
        0x00002c80:    00000000    ....    DCD    0
    Hzk1
        0x00002c84:    10f00000    ....    DCD    284164096
        0x00002c88:    ff101010    ....    DCD    4279242768
        0x00002c8c:    10101010    ....    DCD    269488144
        0x00002c90:    000000f0    ....    DCD    240
        0x00002c94:    040f0000    ....    DCD    68091904
        0x00002c98:    ff040404    ....    DCD    4278453252
        0x00002c9c:    04040404    ....    DCD    67372036
        0x00002ca0:    0000000f    ....    DCD    15
        0x00002ca4:    5f404040    @@@_    DCD    1598046272
        0x00002ca8:    75555555    UUUu    DCD    1968526677
        0x00002cac:    5f555555    UUU_    DCD    1599427925
        0x00002cb0:    00404040    @@@.    DCD    4210752
        0x00002cb4:    0f204000    .@ .    DCD    253771776
        0x00002cb8:    79894909    .I.y    DCD    2039040265
        0x00002cbc:    0f090909    ....    DCD    252250377
        0x00002cc0:    00004020     @..    DCD    16416
        0x00002cc4:    4202fe00    ...B    DCD    1107492352
        0x00002cc8:    4a4aca4a    J.JJ    DCD    1246415434
        0x00002ccc:    424a4aca    .JJB    DCD    1112165066
        0x00002cd0:    0000fe02    ....    DCD    65026
        0x00002cd4:    5040ff00    ..@P    DCD    1346436864
        0x00002cd8:    4040434c    LC@@    DCD    1077953356
        0x00002cdc:    5c50504f    OPP\    DCD    1548767311
        0x00002ce0:    0000ff40    @...    DCD    65344
        0x00002ce4:    88f80000    ....    DCD    2297954304
        0x00002ce8:    ff888888    ....    DCD    4287137928
        0x00002cec:    88888888    ....    DCD    2290649224
        0x00002cf0:    000000f8    ....    DCD    248
        0x00002cf4:    081f0000    ....    DCD    136249344
        0x00002cf8:    7f080808    ....    DCD    2131232776
        0x00002cfc:    88888888    ....    DCD    2290649224
        0x00002d00:    00f0809f    ....    DCD    15761567
        0x00002d04:    82828280    ....    DCD    2189591168
        0x00002d08:    e2828282    ....    DCD    3800203906
        0x00002d0c:    868a92a2    ....    DCD    2257228450
        0x00002d10:    00808082    ....    DCD    8421506
        0x00002d14:    00000000    ....    DCD    0
        0x00002d18:    7f804000    .@..    DCD    2139111424
        0x00002d1c:    00000000    ....    DCD    0
        0x00002d20:    00000000    ....    DCD    0
        0x00002d24:    ff101010    ....    DCD    4279242768
        0x00002d28:    88089010    ....    DCD    2282262544
        0x00002d2c:    88ff8888    ....    DCD    2298448008
        0x00002d30:    00088888    ....    DCD    559240
        0x00002d34:    7f824404    .D..    DCD    2139243524
        0x00002d38:    40808001    ...@    DCD    1082163201
        0x00002d3c:    28102c43    C,.(    DCD    672148547
        0x00002d40:    00808146    F...    DCD    8421702
        0x00002d44:    10101000    ....    DCD    269488128
        0x00002d48:    ff30d010    ..0.    DCD    4281389072
        0x00002d4c:    1c12d030    0...    DCD    470994992
        0x00002d50:    00001010    ....    DCD    4112
        0x00002d54:    02040810    ....    DCD    33818640
        0x00002d58:    ff000001    ....    DCD    4278190081
        0x00002d5c:    02010000    ....    DCD    33619968
        0x00002d60:    00100804    ....    DCD    1050628
        0x00002d64:    84040404    ....    DCD    2214855684
        0x00002d68:    24273ce4    .<'$    DCD    606551268
        0x00002d6c:    e4242424    $$$.    DCD    3827573796
        0x00002d70:    00040404    ....    DCD    263172
        0x00002d74:    00010204    ....    DCD    66052
        0x00002d78:    090909ff    ....    DCD    151587327
        0x00002d7c:    7f894909    .I..    DCD    2139703561
        0x00002d80:    00000000    ....    DCD    0
        0x00002d84:    5a22fe00    .."Z    DCD    1512242688
        0x00002d88:    92fe0086    ....    DCD    2466119814
        0x00002d8c:    92929292    ....    DCD    2459079314
        0x00002d90:    000000fe    ....    DCD    254
        0x00002d94:    0804ff00    ....    DCD    134545152
        0x00002d98:    40ff0007    ...@    DCD    1090453511
        0x00002d9c:    140c0320     ...    DCD    336331552
        0x00002da0:    00404122    "A@.    DCD    4210978
        0x00002da4:    20408000    ..@     DCD    541097984
        0x00002da8:    00800618    ....    DCD    8390168
        0x00002dac:    40201807    .. @    DCD    1075845127
        0x00002db0:    00000080    ....    DCD    128
        0x00002db4:    70200001    .. p    DCD    1881145345
        0x00002db8:    20212628    (&!     DCD    539043368
        0x00002dbc:    60382420     $8`    DCD    1614292000
        0x00002dc0:    00010100    ....    DCD    65792
        0x00002dc4:    92121000    ....    DCD    2450657280
        0x00002dc8:    92929292    ....    DCD    2459079314
        0x00002dcc:    02121292    ....    DCD    34738834
        0x00002dd0:    000000fe    ....    DCD    254
        0x00002dd4:    3f000000    ...?    DCD    1056964608
        0x00002dd8:    10101010    ....    DCD    269488144
        0x00002ddc:    8040003f    ?.@.    DCD    2151678015
        0x00002de0:    0000007f    ....    DCD    127
    Hzk2
        0x00002de4:    c0000000    ....    DCD    3221225472
        0x00002de8:    80808080    ....    DCD    2155905152
        0x00002dec:    fc808080    ....    DCD    4236279936
        0x00002df0:    80808084    ....    DCD    2155905156
        0x00002df4:    c0808080    ....    DCD    3229646976
        0x00002df8:    000000c0    ....    DCD    192
        0x00002dfc:    ff000000    ....    DCD    4278190080
        0x00002e00:    4040407f    .@@@    DCD    1077952639
        0x00002e04:    ff404040    @@@.    DCD    4282400832
        0x00002e08:    40404040    @@@@    DCD    1077952576
        0x00002e0c:    ff404040    @@@.    DCD    4282400832
        0x00002e10:    0000007f    ....    DCD    127
        0x00002e14:    00000000    ....    DCD    0
        0x00002e18:    00000000    ....    DCD    0
        0x00002e1c:    7f000000    ....    DCD    2130706432
        0x00002e20:    00000070    p...    DCD    112
        0x00002e24:    00000000    ....    DCD    0
        0x00002e28:    00000000    ....    DCD    0
    Hzk3
        0x00002e2c:    00000000    ....    DCD    0
        0x00002e30:    00000000    ....    DCD    0
        0x00002e34:    00000000    ....    DCD    0
        0x00002e38:    fc000000    ....    DCD    4227858432
        0x00002e3c:    000000f8    ....    DCD    248
        0x00002e40:    00000000    ....    DCD    0
        0x00002e44:    00000000    ....    DCD    0
        0x00002e48:    00000000    ....    DCD    0
        0x00002e4c:    00000000    ....    DCD    0
        0x00002e50:    0202feff    ....    DCD    33750783
        0x00002e54:    02020202    ....    DCD    33686018
        0x00002e58:    ff020202    ....    DCD    4278321666
        0x00002e5c:    020202ff    ....    DCD    33686271
        0x00002e60:    02020202    ....    DCD    33686018
        0x00002e64:    03ff0202    ....    DCD    67043842
        0x00002e68:    00000000    ....    DCD    0
        0x00002e6c:    00000000    ....    DCD    0
        0x00002e70:    04041f1f    ....    DCD    67378975
        0x00002e74:    04040404    ....    DCD    67372036
        0x00002e78:    ff040404    ....    DCD    4278453252
        0x00002e7c:    040404ff    ....    DCD    67372287
        0x00002e80:    04040404    ....    DCD    67372036
        0x00002e84:    001f0404    ....    DCD    2032644
        0x00002e88:    00000000    ....    DCD    0
        0x00002e8c:    00000000    ....    DCD    0
        0x00002e90:    00000000    ....    DCD    0
        0x00002e94:    00000000    ....    DCD    0
        0x00002e98:    7f000000    ....    DCD    2130706432
        0x00002e9c:    0000003f    ?...    DCD    63
        0x00002ea0:    00000000    ....    DCD    0
        0x00002ea4:    00000000    ....    DCD    0
        0x00002ea8:    00000000    ....    DCD    0
    Hzk4
        0x00002eac:    00000000    ....    DCD    0
        0x00002eb0:    00000000    ....    DCD    0
        0x00002eb4:    00000000    ....    DCD    0
        0x00002eb8:    00000000    ....    DCD    0
        0x00002ebc:    00000000    ....    DCD    0
        0x00002ec0:    00000000    ....    DCD    0
        0x00002ec4:    00000000    ....    DCD    0
        0x00002ec8:    f0f8f800    ....    DCD    4042848256
        0x00002ecc:    002070f0    .p .    DCD    2126064
        0x00002ed0:    00000000    ....    DCD    0
        0x00002ed4:    00000000    ....    DCD    0
        0x00002ed8:    00000000    ....    DCD    0
        0x00002edc:    00000000    ....    DCD    0
        0x00002ee0:    00000000    ....    DCD    0
        0x00002ee4:    00000000    ....    DCD    0
        0x00002ee8:    00000000    ....    DCD    0
        0x00002eec:    00000000    ....    DCD    0
        0x00002ef0:    00000000    ....    DCD    0
        0x00002ef4:    00000080    ....    DCD    128
        0x00002ef8:    00000000    ....    DCD    0
        0x00002efc:    00000000    ....    DCD    0
        0x00002f00:    00000000    ....    DCD    0
        0x00002f04:    00000000    ....    DCD    0
        0x00002f08:    ffffff00    ....    DCD    4294967040
        0x00002f0c:    000000ff    ....    DCD    255
        0x00002f10:    00000000    ....    DCD    0
        0x00002f14:    00000000    ....    DCD    0
        0x00002f18:    00000000    ....    DCD    0
        0x00002f1c:    00000000    ....    DCD    0
        0x00002f20:    00008080    ....    DCD    32896
        0x00002f24:    00000000    ....    DCD    0
        0x00002f28:    00000000    ....    DCD    0
        0x00002f2c:    00000000    ....    DCD    0
        0x00002f30:    00000000    ....    DCD    0
        0x00002f34:    feffff00    ....    DCD    4278189824
        0x00002f38:    06060606    ....    DCD    101058054
        0x00002f3c:    06060606    ....    DCD    101058054
        0x00002f40:    06060606    ....    DCD    101058054
        0x00002f44:    06060606    ....    DCD    101058054
        0x00002f48:    ffffff06    ....    DCD    4294967046
        0x00002f4c:    060606ff    ....    DCD    101058303
        0x00002f50:    06060606    ....    DCD    101058054
        0x00002f54:    06060606    ....    DCD    101058054
        0x00002f58:    06060606    ....    DCD    101058054
        0x00002f5c:    ff060606    ....    DCD    4278584838
        0x00002f60:    07ffffff    ....    DCD    134217727
        0x00002f64:    00000002    ....    DCD    2
        0x00002f68:    00000000    ....    DCD    0
        0x00002f6c:    00000000    ....    DCD    0
        0x00002f70:    00000000    ....    DCD    0
        0x00002f74:    ffffff00    ....    DCD    4294967040
        0x00002f78:    00000000    ....    DCD    0
        0x00002f7c:    00000000    ....    DCD    0
        0x00002f80:    00000000    ....    DCD    0
        0x00002f84:    00000000    ....    DCD    0
        0x00002f88:    ffffff00    ....    DCD    4294967040
        0x00002f8c:    000000ff    ....    DCD    255
        0x00002f90:    00000000    ....    DCD    0
        0x00002f94:    00000000    ....    DCD    0
        0x00002f98:    00000000    ....    DCD    0
        0x00002f9c:    ff000000    ....    DCD    4278190080
        0x00002fa0:    00ffffff    ....    DCD    16777215
        0x00002fa4:    00000000    ....    DCD    0
        0x00002fa8:    00000000    ....    DCD    0
        0x00002fac:    00000000    ....    DCD    0
        0x00002fb0:    00000000    ....    DCD    0
        0x00002fb4:    ffffff00    ....    DCD    4294967040
        0x00002fb8:    18181818    ....    DCD    404232216
        0x00002fbc:    18181818    ....    DCD    404232216
        0x00002fc0:    18181818    ....    DCD    404232216
        0x00002fc4:    18181818    ....    DCD    404232216
        0x00002fc8:    ffffff18    ....    DCD    4294967064
        0x00002fcc:    181818ff    ....    DCD    404232447
        0x00002fd0:    18181818    ....    DCD    404232216
        0x00002fd4:    18181818    ....    DCD    404232216
        0x00002fd8:    18181818    ....    DCD    404232216
        0x00002fdc:    ff181818    ....    DCD    4279769112
        0x00002fe0:    00ffffff    ....    DCD    16777215
        0x00002fe4:    00000000    ....    DCD    0
        0x00002fe8:    00000000    ....    DCD    0
        0x00002fec:    00000000    ....    DCD    0
        0x00002ff0:    00000000    ....    DCD    0
        0x00002ff4:    00010102    ....    DCD    65794
        0x00002ff8:    00000000    ....    DCD    0
        0x00002ffc:    00000000    ....    DCD    0
        0x00003000:    00000000    ....    DCD    0
        0x00003004:    00000000    ....    DCD    0
        0x00003008:    ffffff00    ....    DCD    4294967040
        0x0000300c:    000000ff    ....    DCD    255
        0x00003010:    00000000    ....    DCD    0
        0x00003014:    00000000    ....    DCD    0
        0x00003018:    00000000    ....    DCD    0
        0x0000301c:    01000000    ....    DCD    16777216
        0x00003020:    00000001    ....    DCD    1
        0x00003024:    00000000    ....    DCD    0
        0x00003028:    00000000    ....    DCD    0
        0x0000302c:    00000000    ....    DCD    0
        0x00003030:    00000000    ....    DCD    0
        0x00003034:    00000000    ....    DCD    0
        0x00003038:    00000000    ....    DCD    0
        0x0000303c:    00000000    ....    DCD    0
        0x00003040:    00000000    ....    DCD    0
        0x00003044:    00000000    ....    DCD    0
        0x00003048:    ffffff00    ....    DCD    4294967040
        0x0000304c:    000000ff    ....    DCD    255
        0x00003050:    00000000    ....    DCD    0
        0x00003054:    00000000    ....    DCD    0
        0x00003058:    00000000    ....    DCD    0
        0x0000305c:    00000000    ....    DCD    0
        0x00003060:    00000000    ....    DCD    0
        0x00003064:    00000000    ....    DCD    0
        0x00003068:    00000000    ....    DCD    0
        0x0000306c:    00000000    ....    DCD    0
        0x00003070:    00000000    ....    DCD    0
        0x00003074:    00000000    ....    DCD    0
        0x00003078:    00000000    ....    DCD    0
        0x0000307c:    00000000    ....    DCD    0
        0x00003080:    00000000    ....    DCD    0
        0x00003084:    00000000    ....    DCD    0
        0x00003088:    0f1f1f00    ....    DCD    253697792
        0x0000308c:    0000000f    ....    DCD    15
        0x00003090:    00000000    ....    DCD    0
        0x00003094:    00000000    ....    DCD    0
        0x00003098:    00000000    ....    DCD    0
        0x0000309c:    00000000    ....    DCD    0
        0x000030a0:    00000000    ....    DCD    0
        0x000030a4:    00000000    ....    DCD    0
        0x000030a8:    00000000    ....    DCD    0
    body
        0x000030ac:    c3c3ffff    ....    DCD    3284402175
        0x000030b0:    ffffc3c3    ....    DCD    4294951875
    .constdata
    fdiv_tab
        0x000030b4:    84838281    ....    DCD    2223211137
        0x000030b8:    88878685    ....    DCD    2290583173
        0x000030bc:    8d8c8b89    ....    DCD    2374798217
        0x000030c0:    92918f8e    ....    DCD    2459013006
        0x000030c4:    97969593    ....    DCD    2543228307
        0x000030c8:    9d9c9a99    ....    DCD    2644286105
        0x000030cc:    a3a2a09f    ....    DCD    2745344159
        0x000030d0:    aaa8a7a5    ....    DCD    2863179685
        0x000030d4:    b2b0aeac    ....    DCD    2997923500
        0x000030d8:    b9b7b5b3    ....    DCD    3115824563
        0x000030dc:    c2c0bebc    ....    DCD    3267411644
        0x000030e0:    ccc9c7c5    ....    DCD    3435775941
        0x000030e4:    d7d4d1ce    ....    DCD    3621048782
        0x000030e8:    e2dfdcd9    ....    DCD    3806321881
        0x000030ec:    f0ece9e6    ....    DCD    4042058214
        0x000030f0:    fefaf7f3    ....    DCD    4277860339
    Region$$Table$$Base
        0x000030f4:    00003114    .1..    DCD    12564
        0x000030f8:    20000000    ...     DCD    536870912
        0x000030fc:    00000080    ....    DCD    128
        0x00003100:    000000c8    ....    DCD    200
        0x00003104:    00003194    .1..    DCD    12692
        0x00003108:    20000080    ...     DCD    536871040
        0x0000310c:    00000810    ....    DCD    2064
        0x00003110:    000000e4    ....    DCD    228
    Region$$Table$$Limit

====================================

** Section #2

    Name        : RW_IRAM1
    Type        : SHT_PROGBITS (0x00000001)
    Flags       : SHF_ALLOC + SHF_WRITE (0x00000003)
    Addr        : 0x20000000
    File Offset : 12616 (0x3148)
    Size        : 128 bytes (0x80)
    Link        : SHN_UNDEF
    Info        : 0
    Alignment   : 4
    Entry Size  : 0


====================================

** Section #3

    Name        : RW_IRAM1
    Type        : SHT_NOBITS (0x00000008)
    Flags       : SHF_ALLOC + SHF_WRITE (0x00000003)
    Addr        : 0x20000080
    File Offset : 12744 (0x31c8)
    Size        : 2064 bytes (0x810)
    Link        : SHN_UNDEF
    Info        : 0
    Alignment   : 8
    Entry Size  : 0


====================================

** Section #4

    Name        : .debug_abbrev
    Type        : SHT_PROGBITS (0x00000001)
    Flags       : None (0x00000000)
    Addr        : 0x00000000
    File Offset : 12744 (0x31c8)
    Size        : 1476 bytes (0x5c4)
    Link        : SHN_UNDEF
    Info        : 0
    Alignment   : 1
    Entry Size  : 0


====================================

** Section #5

    Name        : .debug_frame
    Type        : SHT_PROGBITS (0x00000001)
    Flags       : None (0x00000000)
    Addr        : 0x00000000
    File Offset : 14220 (0x378c)
    Size        : 3728 bytes (0xe90)
    Link        : SHN_UNDEF
    Info        : 0
    Alignment   : 1
    Entry Size  : 0


====================================

** Section #6

    Name        : .debug_info
    Type        : SHT_PROGBITS (0x00000001)
    Flags       : None (0x00000000)
    Addr        : 0x00000000
    File Offset : 17948 (0x461c)
    Size        : 36976 bytes (0x9070)
    Link        : SHN_UNDEF
    Info        : 0
    Alignment   : 1
    Entry Size  : 0


====================================

** Section #7

    Name        : .debug_line
    Type        : SHT_PROGBITS (0x00000001)
    Flags       : None (0x00000000)
    Addr        : 0x00000000
    File Offset : 54924 (0xd68c)
    Size        : 14604 bytes (0x390c)
    Link        : SHN_UNDEF
    Info        : 0
    Alignment   : 1
    Entry Size  : 0


====================================

** Section #8

    Name        : .debug_loc
    Type        : SHT_PROGBITS (0x00000001)
    Flags       : None (0x00000000)
    Addr        : 0x00000000
    File Offset : 69528 (0x10f98)
    Size        : 5040 bytes (0x13b0)
    Link        : SHN_UNDEF
    Info        : 0
    Alignment   : 1
    Entry Size  : 0


====================================

** Section #9

    Name        : .debug_macinfo
    Type        : SHT_PROGBITS (0x00000001)
    Flags       : None (0x00000000)
    Addr        : 0x00000000
    File Offset : 74568 (0x12348)
    Size        : 22660 bytes (0x5884)
    Link        : SHN_UNDEF
    Info        : 0
    Alignment   : 1
    Entry Size  : 0


====================================

** Section #10

    Name        : .debug_pubnames
    Type        : SHT_PROGBITS (0x00000001)
    Flags       : None (0x00000000)
    Addr        : 0x00000000
    File Offset : 97228 (0x17bcc)
    Size        : 4713 bytes (0x1269)
    Link        : SHN_UNDEF
    Info        : 0
    Alignment   : 1
    Entry Size  : 0


====================================

** Section #11

    Name        : .symtab
    Type        : SHT_SYMTAB (0x00000002)
    Flags       : None (0x00000000)
    Addr        : 0x00000000
    File Offset : 101944 (0x18e38)
    Size        : 12368 bytes (0x3050)
    Link        : Section 12 (.strtab)
    Info        : Last local symbol no = 490
    Alignment   : 4
    Entry Size  : 16


====================================

** Section #12

    Name        : .strtab
    Type        : SHT_STRTAB (0x00000003)
    Flags       : None (0x00000000)
    Addr        : 0x00000000
    File Offset : 114312 (0x1be88)
    Size        : 8976 bytes (0x2310)
    Link        : SHN_UNDEF
    Info        : 0
    Alignment   : 1
    Entry Size  : 0


====================================

** Section #13

    Name        : .note
    Type        : SHT_NOTE (0x00000007)
    Flags       : None (0x00000000)
    Addr        : 0x00000000
    File Offset : 123288 (0x1e198)
    Size        : 28 bytes (0x1c)
    Link        : SHN_UNDEF
    Info        : 0
    Alignment   : 4
    Entry Size  : 0

        Section     Segment
    ====================================

              1           0
              2           0
              3           0

====================================

** Section #14

    Name        : .comment
    Type        : SHT_PROGBITS (0x00000001)
    Flags       : None (0x00000000)
    Addr        : 0x00000000
    File Offset : 123316 (0x1e1b4)
    Size        : 17192 bytes (0x4328)
    Link        : SHN_UNDEF
    Info        : 0
    Alignment   : 1
    Entry Size  : 0

    Component: ARM Compiler 5.06 update 7 (build 960) Tool: armlink [4d3601]
    ArmLink --strict --callgraph --load_addr_map_info --map --symbols --xref --diag_suppress=9931 --cpu=Cortex-M0 --list=.\Listings\CM0.map --output=.\CM0.axf --scatter=.\CM0.sct --info=summarysizes,sizes,totals,unused,veneers

    E:\Keil5\ARM\ARMCC\Bin\..\lib\armlib\c_p.l
    E:\Keil5\ARM\ARMCC\Bin\..\lib\armlib\fz_ps.l
    E:\Keil5\ARM\ARMCC\Bin\..\lib\armlib\h_p.l
    E:\Keil5\ARM\ARMCC\Bin\..\lib\armlib\m_ps.l
    E:\Keil5\ARM\ARMCC\Bin\..\lib\armlib\vfpsupport.l
    Input Comments:
    
    startup_cmsdk_cm0.o
    
    Component: ARM Compiler 5.06 update 7 (build 960) Tool: armasm [4d35fa]
    ArmAsm --debug --xref --diag_suppress=9931 --cpu=Cortex-M0 --apcs=interwork --depend=.\startup_cmsdk_cm0.d  -IE:\Keil5\Keil\V2M-MPS2_CMx_BSP\1.8.1\Device\CMSDK_CM0\Include --predefine="__UVISION_VERSION SETA 538" --predefine="CMSDK_CM0
    cmsdk_driver.o
    
    Component: ARM Compiler 5.06 update 7 (build 960) Tool: armlink [4d3601]
    armlink --partial --no_add_relocs_to_undefined --no_generate_mapping_symbols --diag_suppress=9931,9931,6642 --cpu=Cortex-M0 --fpu=SoftVFP --output=.\cmsdk_driver.o --vfemode=force

    Input Comments:
    
    p3e1c-3
    
    Component: ARM Compiler 5.06 update 7 (build 960) Tool: armasm [4d35fa]
    armasm --debug --diag_suppress=9931,9931,1602,1073 --cpu=Cortex-M0 --fpu=SoftVFP --apcs=/interwork/interwork --no_divide 
    cmsdk_driver.o
    
    Component: ARM Compiler 5.06 update 7 (build 960) Tool: ArmCC [4d365d]
    ArmCC --split_sections --debug -c --gnu -o.\cmsdk_driver.o --depend=.\cmsdk_driver.d --cpu=Cortex-M0 --apcs=interwork -O0 --diag_suppress=9931 -I..\CORE -I..\FWLIB\inc -I..\FWLIB -I..\System -I..\USER -I..\Games -I..\HARDWARE -IE:\Keil5\Keil\V2M-MPS2_CMx_BSP\1.8.1\Device\CMSDK_CM0\Include -D__UVISION_VERSION=538 -DCMSDK_CM0 --omf_browse=.\cmsdk_driver.crf ..\FWLIB\src\CMSDK_driver.c
    
    
    system_cmsdk_cm0.o
    
    Component: ARM Compiler 5.06 update 7 (build 960) Tool: armlink [4d3601]
    armlink --partial --no_add_relocs_to_undefined --no_generate_mapping_symbols --diag_suppress=9931,9931,6642 --cpu=Cortex-M0 --fpu=SoftVFP --output=.\system_cmsdk_cm0.o --vfemode=force

    Input Comments:
    
    p57f4-3
    
    Component: ARM Compiler 5.06 update 7 (build 960) Tool: armasm [4d35fa]
    armasm --debug --diag_suppress=9931,9931,1602,1073 --cpu=Cortex-M0 --fpu=SoftVFP --apcs=/interwork/interwork --no_divide 
    system_cmsdk_cm0.o
    
    Component: ARM Compiler 5.06 update 7 (build 960) Tool: ArmCC [4d365d]
    ArmCC --split_sections --debug -c --gnu -o.\system_cmsdk_cm0.o --depend=.\system_cmsdk_cm0.d --cpu=Cortex-M0 --apcs=interwork -O0 --diag_suppress=9931 -I..\CORE -I..\FWLIB\inc -I..\FWLIB -I..\System -I..\USER -I..\Games -I..\HARDWARE -IE:\Keil5\Keil\V2M-MPS2_CMx_BSP\1.8.1\Device\CMSDK_CM0\Include -D__UVISION_VERSION=538 -DCMSDK_CM0 --omf_browse=.\system_cmsdk_cm0.crf ..\FWLIB\src\system_CMSDK_CM0.c
    
    
    cm0_gpio.o
    
    Component: ARM Compiler 5.06 update 7 (build 960) Tool: armlink [4d3601]
    armlink --partial --no_add_relocs_to_undefined --no_generate_mapping_symbols --diag_suppress=9931,9931,6642 --cpu=Cortex-M0 --fpu=SoftVFP --output=.\cm0_gpio.o --vfemode=force

    Input Comments:
    
    p54fc-3
    
    Component: ARM Compiler 5.06 update 7 (build 960) Tool: armasm [4d35fa]
    armasm --debug --diag_suppress=9931,9931,1602,1073 --cpu=Cortex-M0 --fpu=SoftVFP --apcs=/interwork/interwork --no_divide 
    cm0_gpio.o
    
    Component: ARM Compiler 5.06 update 7 (build 960) Tool: ArmCC [4d365d]
    ArmCC --split_sections --debug -c --gnu -o.\cm0_gpio.o --depend=.\cm0_gpio.d --cpu=Cortex-M0 --apcs=interwork -O0 --diag_suppress=9931 -I..\CORE -I..\FWLIB\inc -I..\FWLIB -I..\System -I..\USER -I..\Games -I..\HARDWARE -IE:\Keil5\Keil\V2M-MPS2_CMx_BSP\1.8.1\Device\CMSDK_CM0\Include -D__UVISION_VERSION=538 -DCMSDK_CM0 --omf_browse=.\cm0_gpio.crf ..\FWLIB\cm0_gpio.c
    
    
    cm0_timer.o
    
    Component: ARM Compiler 5.06 update 7 (build 960) Tool: armlink [4d3601]
    armlink --partial --no_add_relocs_to_undefined --no_generate_mapping_symbols --diag_suppress=9931,9931,6642 --cpu=Cortex-M0 --fpu=SoftVFP --output=.\cm0_timer.o --vfemode=force

    Input Comments:
    
    p3b7c-3
    
    Component: ARM Compiler 5.06 update 7 (build 960) Tool: armasm [4d35fa]
    armasm --debug --diag_suppress=9931,9931,1602,1073 --cpu=Cortex-M0 --fpu=SoftVFP --apcs=/interwork/interwork --no_divide 
    cm0_timer.o
    
    Component: ARM Compiler 5.06 update 7 (build 960) Tool: ArmCC [4d365d]
    ArmCC --split_sections --debug -c --gnu -o.\cm0_timer.o --depend=.\cm0_timer.d --cpu=Cortex-M0 --apcs=interwork -O0 --diag_suppress=9931 -I..\CORE -I..\FWLIB\inc -I..\FWLIB -I..\System -I..\USER -I..\Games -I..\HARDWARE -IE:\Keil5\Keil\V2M-MPS2_CMx_BSP\1.8.1\Device\CMSDK_CM0\Include -D__UVISION_VERSION=538 -DCMSDK_CM0 --omf_browse=.\cm0_timer.crf ..\FWLIB\cm0_timer.c
    
    
    
    
    simple_timer.o
    
    Component: ARM Compiler 5.06 update 7 (build 960) Tool: armlink [4d3601]
    armlink --partial --no_add_relocs_to_undefined --no_generate_mapping_symbols --diag_suppress=9931,9931,6642 --cpu=Cortex-M0 --fpu=SoftVFP --output=.\simple_timer.o --vfemode=force

    Input Comments:
    
    p5008-3
    
    Component: ARM Compiler 5.06 update 7 (build 960) Tool: armasm [4d35fa]
    armasm --debug --diag_suppress=9931,9931,1602,1073 --cpu=Cortex-M0 --fpu=SoftVFP --apcs=/interwork/interwork --no_divide 
    simple_timer.o
    
    Component: ARM Compiler 5.06 update 7 (build 960) Tool: ArmCC [4d365d]
    ArmCC --split_sections --debug -c --gnu -o.\simple_timer.o --depend=.\simple_timer.d --cpu=Cortex-M0 --apcs=interwork -O0 --diag_suppress=9931 -I..\CORE -I..\FWLIB\inc -I..\FWLIB -I..\System -I..\USER -I..\Games -I..\HARDWARE -IE:\Keil5\Keil\V2M-MPS2_CMx_BSP\1.8.1\Device\CMSDK_CM0\Include -D__UVISION_VERSION=538 -DCMSDK_CM0 --omf_browse=.\simple_timer.crf ..\FWLIB\simple_timer.c
    
    
    cm0_uart.o
    
    Component: ARM Compiler 5.06 update 7 (build 960) Tool: armlink [4d3601]
    armlink --partial --no_add_relocs_to_undefined --no_generate_mapping_symbols --diag_suppress=9931,9931,6642 --cpu=Cortex-M0 --fpu=SoftVFP --output=.\cm0_uart.o --vfemode=force

    Input Comments:
    
    p5520-3
    
    Component: ARM Compiler 5.06 update 7 (build 960) Tool: armasm [4d35fa]
    armasm --debug --diag_suppress=9931,9931,1602,1073 --cpu=Cortex-M0 --fpu=SoftVFP --apcs=/interwork/interwork --no_divide 
    cm0_uart.o
    
    Component: ARM Compiler 5.06 update 7 (build 960) Tool: ArmCC [4d365d]
    ArmCC --split_sections --debug -c --gnu -o.\cm0_uart.o --depend=.\cm0_uart.d --cpu=Cortex-M0 --apcs=interwork -O0 --diag_suppress=9931 -I..\CORE -I..\FWLIB\inc -I..\FWLIB -I..\System -I..\USER -I..\Games -I..\HARDWARE -IE:\Keil5\Keil\V2M-MPS2_CMx_BSP\1.8.1\Device\CMSDK_CM0\Include -D__UVISION_VERSION=538 -DCMSDK_CM0 --omf_browse=.\cm0_uart.crf ..\FWLIB\cm0_uart.c
    
    
    handcontroller.o
    
    Component: ARM Compiler 5.06 update 7 (build 960) Tool: armlink [4d3601]
    armlink --partial --no_add_relocs_to_undefined --no_generate_mapping_symbols --diag_suppress=9931,9931,6642 --cpu=Cortex-M0 --fpu=SoftVFP --output=.\handcontroller.o --vfemode=force

    Input Comments:
    
    p55ec-3
    
    Component: ARM Compiler 5.06 update 7 (build 960) Tool: armasm [4d35fa]
    armasm --debug --diag_suppress=9931,9931,1602,1073 --cpu=Cortex-M0 --fpu=SoftVFP --apcs=/interwork/interwork --no_divide 
    handcontroller.o
    
    Component: ARM Compiler 5.06 update 7 (build 960) Tool: ArmCC [4d365d]
    ArmCC --split_sections --debug -c --gnu -o.\handcontroller.o --depend=.\handcontroller.d --cpu=Cortex-M0 --apcs=interwork -O0 --diag_suppress=9931 -I..\CORE -I..\FWLIB\inc -I..\FWLIB -I..\System -I..\USER -I..\Games -I..\HARDWARE -IE:\Keil5\Keil\V2M-MPS2_CMx_BSP\1.8.1\Device\CMSDK_CM0\Include -D__UVISION_VERSION=538 -DCMSDK_CM0 --omf_browse=.\handcontroller.crf ..\HARDWARE\Handcontroller.c
    
    
    
    oled.o
    
    Component: ARM Compiler 5.06 update 7 (build 960) Tool: armlink [4d3601]
    armlink --partial --no_add_relocs_to_undefined --no_generate_mapping_symbols --diag_suppress=9931,9931,6642 --cpu=Cortex-M0 --fpu=SoftVFP --output=.\oled.o --vfemode=force

    Input Comments:
    
    p220-3
    
    Component: ARM Compiler 5.06 update 7 (build 960) Tool: armasm [4d35fa]
    armasm --debug --diag_suppress=9931,9931,1602,1073 --cpu=Cortex-M0 --fpu=SoftVFP --apcs=/interwork/interwork --no_divide 
    oled.o
    
    Component: ARM Compiler 5.06 update 7 (build 960) Tool: ArmCC [4d365d]
    ArmCC --split_sections --debug -c --gnu -o.\oled.o --depend=.\oled.d --cpu=Cortex-M0 --apcs=interwork -O0 --diag_suppress=9931 -I..\CORE -I..\FWLIB\inc -I..\FWLIB -I..\System -I..\USER -I..\Games -I..\HARDWARE -IE:\Keil5\Keil\V2M-MPS2_CMx_BSP\1.8.1\Device\CMSDK_CM0\Include -D__UVISION_VERSION=538 -DCMSDK_CM0 --omf_browse=.\oled.crf ..\HARDWARE\oled.c
    
    
    
    
    seg.o
    
    Component: ARM Compiler 5.06 update 7 (build 960) Tool: armlink [4d3601]
    armlink --partial --no_add_relocs_to_undefined --no_generate_mapping_symbols --diag_suppress=9931,9931,6642 --cpu=Cortex-M0 --fpu=SoftVFP --output=.\seg.o --vfemode=force

    Input Comments:
    
    p5268-3
    
    Component: ARM Compiler 5.06 update 7 (build 960) Tool: armasm [4d35fa]
    armasm --debug --diag_suppress=9931,9931,1602,1073 --cpu=Cortex-M0 --fpu=SoftVFP --apcs=/interwork/interwork --no_divide 
    seg.o
    
    Component: ARM Compiler 5.06 update 7 (build 960) Tool: ArmCC [4d365d]
    ArmCC --split_sections --debug -c --gnu -o.\seg.o --depend=.\seg.d --cpu=Cortex-M0 --apcs=interwork -O0 --diag_suppress=9931 -I..\CORE -I..\FWLIB\inc -I..\FWLIB -I..\System -I..\USER -I..\Games -I..\HARDWARE -IE:\Keil5\Keil\V2M-MPS2_CMx_BSP\1.8.1\Device\CMSDK_CM0\Include -D__UVISION_VERSION=538 -DCMSDK_CM0 --omf_browse=.\seg.crf ..\HARDWARE\seg.c
    
    
    
    
    
    music.o
    
    Component: ARM Compiler 5.06 update 7 (build 960) Tool: armlink [4d3601]
    armlink --partial --no_add_relocs_to_undefined --no_generate_mapping_symbols --diag_suppress=9931,9931,6642 --cpu=Cortex-M0 --fpu=SoftVFP --output=.\music.o --vfemode=force

    Input Comments:
    
    p3c90-3
    
    Component: ARM Compiler 5.06 update 7 (build 960) Tool: armasm [4d35fa]
    armasm --debug --diag_suppress=9931,9931,1602,1073 --cpu=Cortex-M0 --fpu=SoftVFP --apcs=/interwork/interwork --no_divide 
    music.o
    
    Component: ARM Compiler 5.06 update 7 (build 960) Tool: ArmCC [4d365d]
    ArmCC --split_sections --debug -c --gnu -o.\music.o --depend=.\music.d --cpu=Cortex-M0 --apcs=interwork -O0 --diag_suppress=9931 -I..\CORE -I..\FWLIB\inc -I..\FWLIB -I..\System -I..\USER -I..\Games -I..\HARDWARE -IE:\Keil5\Keil\V2M-MPS2_CMx_BSP\1.8.1\Device\CMSDK_CM0\Include -D__UVISION_VERSION=538 -DCMSDK_CM0 --omf_browse=.\music.crf ..\HARDWARE\music.c
    
    
    
    
    
    imu.o
    
    Component: ARM Compiler 5.06 update 7 (build 960) Tool: armlink [4d3601]
    armlink --partial --no_add_relocs_to_undefined --no_generate_mapping_symbols --diag_suppress=9931,9931,6642 --cpu=Cortex-M0 --fpu=SoftVFP --output=.\imu.o --vfemode=force

    Input Comments:
    
    p3de0-3
    
    Component: ARM Compiler 5.06 update 7 (build 960) Tool: armasm [4d35fa]
    armasm --debug --diag_suppress=9931,9931,1602,1073 --cpu=Cortex-M0 --fpu=SoftVFP --apcs=/interwork/interwork --no_divide 
    imu.o
    
    Component: ARM Compiler 5.06 update 7 (build 960) Tool: ArmCC [4d365d]
    ArmCC --split_sections --debug -c --gnu -o.\imu.o --depend=.\imu.d --cpu=Cortex-M0 --apcs=interwork -O0 --diag_suppress=9931 -I..\CORE -I..\FWLIB\inc -I..\FWLIB -I..\System -I..\USER -I..\Games -I..\HARDWARE -IE:\Keil5\Keil\V2M-MPS2_CMx_BSP\1.8.1\Device\CMSDK_CM0\Include -D__UVISION_VERSION=538 -DCMSDK_CM0 --omf_browse=.\imu.crf ..\HARDWARE\IMU.c
    
    
    
    
    
    microphone.o
    
    Component: ARM Compiler 5.06 update 7 (build 960) Tool: armlink [4d3601]
    armlink --partial --no_add_relocs_to_undefined --no_generate_mapping_symbols --diag_suppress=9931,9931,6642 --cpu=Cortex-M0 --fpu=SoftVFP --output=.\microphone.o --vfemode=force

    Input Comments:
    
    p4218-3
    
    Component: ARM Compiler 5.06 update 7 (build 960) Tool: armasm [4d35fa]
    armasm --debug --diag_suppress=9931,9931,1602,1073 --cpu=Cortex-M0 --fpu=SoftVFP --apcs=/interwork/interwork --no_divide 
    microphone.o
    
    Component: ARM Compiler 5.06 update 7 (build 960) Tool: ArmCC [4d365d]
    ArmCC --split_sections --debug -c --gnu -o.\microphone.o --depend=.\microphone.d --cpu=Cortex-M0 --apcs=interwork -O0 --diag_suppress=9931 -I..\CORE -I..\FWLIB\inc -I..\FWLIB -I..\System -I..\USER -I..\Games -I..\HARDWARE -IE:\Keil5\Keil\V2M-MPS2_CMx_BSP\1.8.1\Device\CMSDK_CM0\Include -D__UVISION_VERSION=538 -DCMSDK_CM0 --omf_browse=.\microphone.crf ..\HARDWARE\microphone.c
    
    
    
    sg90.o
    
    Component: ARM Compiler 5.06 update 7 (build 960) Tool: armlink [4d3601]
    armlink --partial --no_add_relocs_to_undefined --no_generate_mapping_symbols --diag_suppress=9931,9931,6642 --cpu=Cortex-M0 --fpu=SoftVFP --output=.\sg90.o --vfemode=force

    Input Comments:
    
    p347c-3
    
    Component: ARM Compiler 5.06 update 7 (build 960) Tool: armasm [4d35fa]
    armasm --debug --diag_suppress=9931,9931,1602,1073 --cpu=Cortex-M0 --fpu=SoftVFP --apcs=/interwork/interwork --no_divide 
    sg90.o
    
    Component: ARM Compiler 5.06 update 7 (build 960) Tool: ArmCC [4d365d]
    ArmCC --split_sections --debug -c --gnu -o.\sg90.o --depend=.\sg90.d --cpu=Cortex-M0 --apcs=interwork -O0 --diag_suppress=9931 -I..\CORE -I..\FWLIB\inc -I..\FWLIB -I..\System -I..\USER -I..\Games -I..\HARDWARE -IE:\Keil5\Keil\V2M-MPS2_CMx_BSP\1.8.1\Device\CMSDK_CM0\Include -D__UVISION_VERSION=538 -DCMSDK_CM0 --omf_browse=.\sg90.crf ..\HARDWARE\SG90.c
    
    
    
    speech.o
    
    Component: ARM Compiler 5.06 update 7 (build 960) Tool: armlink [4d3601]
    armlink --partial --no_add_relocs_to_undefined --no_generate_mapping_symbols --diag_suppress=9931,9931,6642 --cpu=Cortex-M0 --fpu=SoftVFP --output=.\speech.o --vfemode=force

    Input Comments:
    
    pab0-3
    
    Component: ARM Compiler 5.06 update 7 (build 960) Tool: armasm [4d35fa]
    armasm --debug --diag_suppress=9931,9931,1602,1073 --cpu=Cortex-M0 --fpu=SoftVFP --apcs=/interwork/interwork --no_divide 
    speech.o
    
    Component: ARM Compiler 5.06 update 7 (build 960) Tool: ArmCC [4d365d]
    ArmCC --split_sections --debug -c --gnu -o.\speech.o --depend=.\speech.d --cpu=Cortex-M0 --apcs=interwork -O0 --diag_suppress=9931 -I..\CORE -I..\FWLIB\inc -I..\FWLIB -I..\System -I..\USER -I..\Games -I..\HARDWARE -IE:\Keil5\Keil\V2M-MPS2_CMx_BSP\1.8.1\Device\CMSDK_CM0\Include -D__UVISION_VERSION=538 -DCMSDK_CM0 --omf_browse=.\speech.crf ..\HARDWARE\speech.c
    
    
    
    
    main.o
    
    Component: ARM Compiler 5.06 update 7 (build 960) Tool: armlink [4d3601]
    armlink --partial --no_add_relocs_to_undefined --no_generate_mapping_symbols --diag_suppress=9931,9931,6642 --cpu=Cortex-M0 --fpu=SoftVFP --output=.\main.o --vfemode=force

    Input Comments:
    
    p3b4c-3
    
    Component: ARM Compiler 5.06 update 7 (build 960) Tool: armasm [4d35fa]
    armasm --debug --diag_suppress=9931,9931,1602,1073 --cpu=Cortex-M0 --fpu=SoftVFP --apcs=/interwork/interwork --no_divide 
    main.o
    
    Component: ARM Compiler 5.06 update 7 (build 960) Tool: ArmCC [4d365d]
    ArmCC --split_sections --debug -c --gnu -o.\main.o --depend=.\main.d --cpu=Cortex-M0 --apcs=interwork -O0 --diag_suppress=9931 -I..\CORE -I..\FWLIB\inc -I..\FWLIB -I..\System -I..\USER -I..\Games -I..\HARDWARE -IE:\Keil5\Keil\V2M-MPS2_CMx_BSP\1.8.1\Device\CMSDK_CM0\Include -D__UVISION_VERSION=538 -DCMSDK_CM0 --omf_browse=.\main.crf main.c
    
    
    
    handler.o
    
    Component: ARM Compiler 5.06 update 7 (build 960) Tool: ArmCC [4d365d]
    ArmCC --split_sections --debug -c --gnu -o.\handler.o --depend=.\handler.d --cpu=Cortex-M0 --apcs=interwork -O0 --diag_suppress=9931 -I..\CORE -I..\FWLIB\inc -I..\FWLIB -I..\System -I..\USER -I..\Games -I..\HARDWARE -IE:\Keil5\Keil\V2M-MPS2_CMx_BSP\1.8.1\Device\CMSDK_CM0\Include -D__UVISION_VERSION=538 -DCMSDK_CM0 --omf_browse=.\handler.crf ..\System\handler.c
    
    systick.o
    
    Component: ARM Compiler 5.06 update 7 (build 960) Tool: armlink [4d3601]
    armlink --partial --no_add_relocs_to_undefined --no_generate_mapping_symbols --diag_suppress=9931,9931,6642 --cpu=Cortex-M0 --fpu=SoftVFP --output=.\systick.o --vfemode=force

    Input Comments:
    
    p485c-3
    
    Component: ARM Compiler 5.06 update 7 (build 960) Tool: armasm [4d35fa]
    armasm --debug --diag_suppress=9931,9931,1602,1073 --cpu=Cortex-M0 --fpu=SoftVFP --apcs=/interwork/interwork --no_divide 
    systick.o
    
    Component: ARM Compiler 5.06 update 7 (build 960) Tool: ArmCC [4d365d]
    ArmCC --split_sections --debug -c --gnu -o.\systick.o --depend=.\systick.d --cpu=Cortex-M0 --apcs=interwork -O0 --diag_suppress=9931 -I..\CORE -I..\FWLIB\inc -I..\FWLIB -I..\System -I..\USER -I..\Games -I..\HARDWARE -IE:\Keil5\Keil\V2M-MPS2_CMx_BSP\1.8.1\Device\CMSDK_CM0\Include -D__UVISION_VERSION=538 -DCMSDK_CM0 --omf_browse=.\systick.crf ..\System\Systick.c
    
    
    
    flybird.o
    
    Component: ARM Compiler 5.06 update 7 (build 960) Tool: armlink [4d3601]
    armlink --partial --no_add_relocs_to_undefined --no_generate_mapping_symbols --diag_suppress=9931,9931,6642 --cpu=Cortex-M0 --fpu=SoftVFP --output=.\flybird.o --vfemode=force

    Input Comments:
    
    p3be4-3
    
    Component: ARM Compiler 5.06 update 7 (build 960) Tool: armasm [4d35fa]
    armasm --debug --diag_suppress=9931,9931,1602,1073 --cpu=Cortex-M0 --fpu=SoftVFP --apcs=/interwork/interwork --no_divide 
    flybird.o
    
    Component: ARM Compiler 5.06 update 7 (build 960) Tool: ArmCC [4d365d]
    ArmCC --split_sections --debug -c --gnu -o.\flybird.o --depend=.\flybird.d --cpu=Cortex-M0 --apcs=interwork -O0 --diag_suppress=9931 -I..\CORE -I..\FWLIB\inc -I..\FWLIB -I..\System -I..\USER -I..\Games -I..\HARDWARE -IE:\Keil5\Keil\V2M-MPS2_CMx_BSP\1.8.1\Device\CMSDK_CM0\Include -D__UVISION_VERSION=538 -DCMSDK_CM0 --omf_browse=.\flybird.crf ..\Games\flybird.c
    
    
    
    
    

====================================

** Section #15

    Name        : .shstrtab
    Type        : SHT_STRTAB (0x00000003)
    Flags       : None (0x00000000)
    Addr        : 0x00000000
    File Offset : 140508 (0x224dc)
    Size        : 156 bytes (0x9c)
    Link        : SHN_UNDEF
    Info        : 0
    Alignment   : 1
    Entry Size  : 0


====================================

